808000:	18      	CLC 
808001:	FB      	XCE 
808002:	E224    	SEP #$24
808004:	C210    	REP #$10
808006:	A2FF1D  	LDX #$1DFF
808009:	9A      	TXS 
80800A:	78      	SEI 
80800B:	F40000  	PEA $0000
80800E:	AB      	PLB 
80800F:	AB      	PLB 
808010:	A901    	LDA #$01
808012:	8D0042  	STA $4200
808015:	A980    	LDA #$80
808017:	8D0021  	STA $2100
80801A:	A901    	LDA #$01
80801C:	8D0D42  	STA $420D
80801F:	22B38100	JSR $0081B3
808023:	A22B83  	LDX #$832B
808026:	22318200	JSR $008231
80802A:	A2A883  	LDX #$83A8
80802D:	22318200	JSR $008231
808031:	22C78200	JSR $0082C7
808035:	22548200	JSR $008254
808039:	226A8200	JSR $00826A		init oam table
80803D:	22558382	JSR $828355	upload spc

808041:	A901    	LDA #$01
808043:	8D4B00  	STA $004B
808046:	8D4C00  	STA $004C
808049:	A981    	LDA #$81
80804B:	8D0042  	STA $4200
80804E:	58      	CLI 
80804F:	22008081	JSR $818000		first screen init
808053:	22BB8281	JSR $8182BB	second screen
808057:	A900    	LDA #$00
808059:	EB      	XBA 
80805A:	ADD906  	LDA $06D9	mode, intro
80805D:	0A      	ASL
80805E:	AA      	TAX 
80805F:	7C6280  	JMP ($8062,x)


########NMI############
808095:	C220    	REP #$20
808097:	8B      	PHB 
808098:	0B      	PHD 
808099:	48      	PHA 
80809A:	DA      	PHX 
80809B:	5A      	PHY 
80809C:	E220    	SEP #$20
80809E:	F40000  	PEA $0000
8080A1:	AB      	PLB 
8080A2:	AB      	PLB 
8080A3:	AD1042  	LDA $4210
8080A6:	AD4100  	LDA $0041
8080A9:	D012    	BNE $80BD
8080AB:	A901    	LDA #$01
8080AD:	8D4100  	STA $0041
8080B0:	223D8100	JSR $00813D	dma gfx
8080B4:	20CC80  	JSR $80CC		hdma
8080B7:	20EE80  	JSR $80EE		dma oam table
8080BA:	201781  	JSR $8117		dma color table
8080BD:	EE3800  	INC $0038
8080C0:	C220    	REP #$20
8080C2:	7A      	PLY 
8080C3:	FA      	PLX 
8080C4:	68      	PLA 
8080C5:	2B      	PLD 
8080C6:	AB      	PLB 
8080C7:	E220    	SEP #$20
8080C9:	40      	RTI
 
8080CA:	EA      	NOP 
8080CB:	40      	RTI

8080CC:	A00000  	LDY #$0000
8080CF:	BE4300  	LDX $0043,Y
8080D2:	F00C    	BEQ $80E0
8080D4:	22318200	JSR $008231
8080D8:	A900    	LDA #$00
8080DA:	994300  	STA $0043,Y
8080DD:	994400  	STA $0044,Y
8080E0:	C8      	INY 
8080E1:	C8      	INY 
8080E2:	C00800  	CPY #$0008
8080E5:	90E8    	BCC $80CF
8080E7:	AD4D00  	LDA $004D
8080EA:	8D0C42  	STA $420C
8080ED:	60      	RTS
 
8080EE:	AD4C00  	LDA $004C
8080F1:	F023    	BEQ $8116
8080F3:	F40043  	PEA $4300
8080F6:	2B      	PLD 
8080F7:	9C0221  	STZ $2102
8080FA:	9C0321  	STZ $2103
8080FD:	A902    	LDA #$02
8080FF:	8570    	STA $70
808101:	A904    	LDA #$04
808103:	8571    	STA $71
808105:	A28E02  	LDX #$028E
808108:	8672    	STX $72
80810A:	6474    	STZ $74
80810C:	A22002  	LDX #$0220
80810F:	8675    	STX $75
808111:	A980    	LDA #$80
808113:	8D0B42  	STA $420B
808116:	60      	RTS

808117:	AD4B00  	LDA $004B
80811A:	F020    	BEQ $813C
80811C:	F40043  	PEA $4300
80811F:	2B      	PLD 
808120:	9C2121  	STZ $2121
808123:	A902    	LDA #$02
808125:	8570    	STA $70
808127:	A922    	LDA #$22
808129:	8571    	STA $71
80812B:	A28E00  	LDX #$008E
80812E:	8672    	STX $72
808130:	6474    	STZ $74
808132:	A20002  	LDX #$0200
808135:	8675    	STX $75
808137:	A980    	LDA #$80
808139:	8D0B42  	STA $420B
80813C:	60      	RTS

80813D:	AD4200  	LDA $0042
808140:	F050    	BEQ $8192
808142:	F40043  	PEA $4300
808145:	2B      	PLD 
808146:	9C0000  	STZ $0000
808149:	A20000  	LDX #$0000
80814C:	BC4E00  	LDY $004E,x
80814F:	F02A    	BEQ $817B
808151:	8475    	STY $75
808153:	BC5000  	LDY $0050,x
808156:	8C1621  	STY $2116
808159:	A980    	LDA #$80
80815B:	8D1521  	STA $2115
80815E:	A00118  	LDY #$1801
808161:	8470    	STY $70
808163:	BC5200  	LDY $0052,x
808166:	BD5400  	LDA $0054,x
808169:	8472    	STY $72
80816B:	8574    	STA $74
80816D:	A980    	LDA #$80
80816F:	8D0B42  	STA $420B
808172:	8D0000  	STA $0000
808175:	9E4E00  	STZ $004E,x
808178:	9E4F00  	STZ $004F,x
80817B:	C220    	REP #$20
80817D:	8A      	TXA 
80817E:	18      	CLC 
80817F:	690800  	ADC #$0008
808182:	AA      	TAX 
808183:	E220    	SEP #$20
808185:	E04000  	CPX #$0040
808188:	90C2    	BCC $814C
80818A:	AD0000  	LDA $0000
80818D:	D003    	BNE $8192
80818F:	9C4200  	STZ $0042
808192:	6B      	RTL

8081B3:	8B      	PHB 
8081B4:	C220    	REP #$20
8081B6:	A20000  	LDX #$0000
8081B9:	A00100  	LDY #$0001
8081BC:	9C0000  	STZ $0000
8081BF:	A93900  	LDA #$0039
8081C2:	540000  	MVN $00,$00
8081C5:	A24100  	LDX #$0041
8081C8:	A04200  	LDY #$0042
8081CB:	9C4100  	STZ $0041
8081CE:	A94707  	LDA #$0747
8081D1:	540000  	MVN $00,$00
8081D4:	A29307  	LDX #$0793
8081D7:	A09407  	LDY #$0794
8081DA:	9C9307  	STZ $0793
8081DD:	A96B10  	LDA #$106B
8081E0:	540000  	MVN $00,$00
8081E3:	F47E7E  	PEA $7E7E
8081E6:	AB      	PLB 
8081E7:	AB      	PLB 
8081E8:	A21020  	LDX #$2010
8081EB:	9B      	TXY 
8081EC:	C8      	INY 
8081ED:	A9EE5F  	LDA #$5FEE
8081F0:	9E0000  	STZ $0000,x
8081F3:	547E7E  	MVN $7E,$7E
8081F6:	A98B54  	LDA #$548B
8081F9:	A2AB6B  	LDX #$6BAB
8081FC:	8DCE06  	STA $06CE
8081FF:	8ED206  	STX $06D2
808202:	E220    	SEP #$20
808204:	AB      	PLB 
808205:	20F382  	JSR $82F3
808208:	9026    	BCC $8230
80820A:	A23412  	LDX #$1234
80820D:	863B    	STX $3B
80820F:	A25634  	LDX #$3456
808212:	863D    	STX $3D
808214:	A28967  	LDX #$6789
808217:	863F    	STX $3F
808219:	A901    	LDA #$01
80821B:	8D8A07  	STA $078A
80821E:	A20303  	LDX #$0303
808221:	8E8B07  	STX $078B
808224:	A20000  	LDX #$0000
808227:	8E8D07  	STX $078D
80822A:	8E8F07  	STX $078F
80822D:	8E9107  	STX $0791
808230:	6B      	RTL

#######WRITE PPU FUNCTION###########
808231:	0B      	PHD 
808232:	5A      	PHY 
808233:	F40000  	PEA $0000
808236:	2B      	PLD 
808237:	BD0000  	LDA $0000,x
80823A:	8501    	STA $01
80823C:	E8      	INX 
80823D:	BC0000  	LDY $0000,x
808240:	E8      	INX 
808241:	E8      	INX 
808242:	BD0000  	LDA $0000,x
808245:	8500    	STA $00
808247:	E8      	INX 
808248:	BD0000  	LDA $0000,x
80824B:	9200    	STA ($00)
80824D:	E8      	INX 
80824E:	88      	DEY 
80824F:	D0F1    	BNE $8242
808251:	7A      	PLY 
808252:	2B      	PLD 
808253:	6B      	RTL

808292:	8B      	PHB 
808293:	F40000  	PEA $0000
808296:	AB      	PLB 
808297:	AB      	PLB 
808298:	C220    	REP #$20
80829A:	A91000  	LDA #$0010
80829D:	8D0000  	STA $0000
8082A0:	BD0000  	LDA $0000,x
8082A3:	8D0200  	STA $0002
8082A6:	E8      	INX 
8082A7:	E8      	INX 
8082A8:	A08E00  	LDY #$008E
8082AB:	4E0200  	LSR $0002
8082AE:	9008    	BCC $82B8
8082B0:	A91F00  	LDA #$001F
8082B3:	540000  	MVN $00,$00
8082B6:	8006    	BRA $82BE
8082B8:	98      	TYA 
8082B9:	18      	CLC 
8082BA:	692000  	ADC #$0020
8082BD:	A8      	TAY 
8082BE:	CE0000  	DEC $0000
8082C1:	D0E8    	BNE $82AB
8082C3:	E220    	SEP #$20
8082C5:	AB      	PLB 
8082C6:	6B      	RTL


818000:	A980    	LDA #$80
818002:	8D0021  	STA $2100
818005:	A2688C  	LDX #$8C68
818008:	22318200	JSR $008231
81800C:	20EF81  	JSR $81EF		dma imax title
81800F:	203182  	JSR $8231		dma imax tilemap
818012:	A28E8C  	LDX #$8C8E
818015:	22928200	JSR $008292	write color buffer
818019:	A968    	LDA #$68
81801B:	8D0008  	STA $0800
81801E:	8D0308  	STA $0803
818021:	A2E800  	LDX #$00E8
818024:	8E0108  	STX $0801
818027:	A21800  	LDX #$0018
81802A:	8E0408  	STX $0804
81802D:	9C0608  	STZ $0806
818030:	F40043  	PEA $4300
818033:	2B      	PLD 
818034:	A900    	LDA #$00
818036:	8F0C4200	STA $00420C
81803A:	A2020E  	LDX #$0E02
81803D:	8600    	STX $00
81803F:	A20008  	LDX #$0800
818042:	8602    	STX $02
818044:	6404    	STZ $04
818046:	6407    	STZ $07
818048:	A901    	LDA #$01
81804A:	8D4D00  	STA $004D
81804D:	A90F    	LDA #$0F
81804F:	8D0021  	STA $2100
818052:	A903    	LDA #$03
818054:	8D2208  	STA $0822
818057:	A9F6    	LDA #$F6
818059:	22B88382	JSR $8283B8	SFX?
81805D:	A901    	LDA #$01
81805F:	227B8382	JSR $82837B  BGM: $828364
818063:	9CDC06  	STZ $06DC
818066:	9C4100  	STZ $0041
818069:	AD4100  	LDA $0041
81806C:	F0FB    	BEQ $8069
81806E:	229D8482	JSR $82849D
818072:	A900    	LDA #$00
818074:	EB      	XBA 
818075:	ADDC06  	LDA $06DC
818078:	0A      	ASL
818079:	AA      	TAX 
81807A:	7C7D80  	JMP ($807D,x)

8182BB:	8B      	PHB 
8182BC:	F40000  	PEA $0000
8182BF:	AB      	PLB 
8182C0:	AB      	PLB 
8182C1:	A980    	LDA #$80
8182C3:	8D0021  	STA $2100
8182C6:	A2F08C  	LDX #$8CF0
8182C9:	22318200	JSR $008231
8182CD:	226A8200	JSR $00826A	init oam table
8182D1:	22CDD581	JSR $81D5CD
8182D5:	20A084  	JSR $84A0		dma title set
8182D8:	20E284  	JSR $84E2		dma hiryu set + shadow
8182DB:	202485  	JSR $8524		dma bg2 map
8182DE:	209786  	JSR $8697
8182E1:	A2588D  	LDX #$8D58
8182E4:	22928200	JSR $008292	write color buffer
8182E8:	A9F6    	LDA #$F6				sfx
8182EA:	22B88382	JSR $8283B8
8182EE:	A902    	LDA #$02		Bgm
8182F0:	22648382	JSR $828364
8182F4:	A900    	LDA #$00
8182F6:	8D0021  	STA $2100
8182F9:	9CF00F  	STZ $0FF0
8182FC:	9CF10F  	STZ $0FF1
8182FF:	9CF20F  	STZ $0FF2
818302:	A901    	LDA #$01
818304:	8DF30F  	STA $0FF3
818307:	9CF017  	STZ $17F0
81830A:	9CF117  	STZ $17F1
81830D:	9CD906  	STZ $06D9
818310:	9CDC06  	STZ $06DC
818313:	9C4100  	STZ $0041
818316:	22098382	JSR $828309
81831A:	AD4100  	LDA $0041
81831D:	F0F7    	BEQ $8316
81831F:	200186  	JSR $8601		dma bg1 map
818322:	202986  	JSR $8629
818325:	A900    	LDA #$00
818327:	EB      	XBA 
818328:	ADDC06  	LDA $06DC
81832B:	0A      	ASL
81832C:	AA      	TAX 
81832D:	7C3083  	JMP ($8330,x)
818330:	3E836C  	ROL $6C83,x
818333:	8393    	STA $93,S
818335:	83CB    	STA $CB,S
818337:	83DA    	STA $DA,S
818339:	8307    	STA $07,S
81833B:	843F    	STY $3F
81833D:	8420    	STY $20
81833F:	558E    	EOR $8E,x
818341:	9007    	BCC $834A
818343:	A905    	LDA #$05
818345:	8DDC06  	STA $06DC
818348:	801F    	BRA $8369
81834A:	229D8482	JSR $82849D
81834E:	CEF017  	DEC $17F0
818351:	1016    	BPL $8369
818353:	A904    	LDA #$04
818355:	8DF017  	STA $17F0
818358:	ADF117  	LDA $17F1
81835B:	8D0021  	STA $2100
81835E:	1A      	INC A
81835F:	8DF117  	STA $17F1
818362:	C910    	CMP #$10
818364:	9003    	BCC $8369
818366:	EEDC06  	INC $06DC
818369:	4C1383  	JMP $8313
81836C:	20558E  	JSR $8E55
81836F:	9007    	BCC $8378
818371:	A905    	LDA #$05
818373:	8DDC06  	STA $06DC
818376:	8018    	BRA $8390
818378:	229D8482	JSR $82849D
81837C:	200187  	JSR $8701
81837F:	900F    	BCC $8390
818381:	204A88  	JSR $884A		imax 1994 map
818384:	9CF017  	STZ $17F0
818387:	A943    	LDA #$43
818389:	22CB8382	JSR $8283CB
81838D:	EEDC06  	INC $06DC
818390:	4C1383  	JMP $8313
818393:	20558E  	JSR $8E55
818396:	9007    	BCC $839F
818398:	A905    	LDA #$05
81839A:	8DDC06  	STA $06DC
81839D:	8029    	BRA $83C8
81839F:	200187  	JSR $8701
8183A2:	229D8482	JSR $82849D
8183A6:	CEF017  	DEC $17F0
8183A9:	101D    	BPL $83C8
8183AB:	A901    	LDA #$01
8183AD:	8DF017  	STA $17F0
8183B0:	22718282	JSR $828271
8183B4:	9012    	BCC $83C8
8183B6:	9C4D00  	STZ $004D
8183B9:	20B388  	JSR $88B3
8183BC:	9CF017  	STZ $17F0
8183BF:	9CF117  	STZ $17F1
8183C2:	9CD906  	STZ $06D9
8183C5:	EEDC06  	INC $06DC
8183C8:	4C1383  	JMP $8313
8183CB:	A94A    	LDA #$4A
8183CD:	8F082100	STA $002108
8183D1:	205B87  	JSR $875B
8183D4:	EEDC06  	INC $06DC
8183D7:	4C1383  	JMP $8313
8183DA:	20558E  	JSR $8E55
8183DD:	9007    	BCC $83E6
8183DF:	A905    	LDA #$05
8183E1:	8DDC06  	STA $06DC
8183E4:	801E    	BRA $8404
8183E6:	229D8482	JSR $82849D
8183EA:	209587  	JSR $8795
8183ED:	9015    	BCC $8404
8183EF:	20B388  	JSR $88B3
8183F2:	9CF017  	STZ $17F0
8183F5:	9CF117  	STZ $17F1
8183F8:	9CD906  	STZ $06D9
8183FB:	A20003  	LDX #$0300
8183FE:	8EB007  	STX $07B0
818401:	EEDC06  	INC $06DC
818404:	4C1383  	JMP $8313
818407:	229D8482	JSR $82849D
81840B:	20E888  	JSR $88E8
81840E:	20838D  	JSR $8D83
818411:	ADF417  	LDA $17F4
818414:	D016    	BNE $842C
818416:	AEB007  	LDX $07B0
818419:	CA      	DEX 
81841A:	8EB007  	STX $07B0
81841D:	D01D    	BNE $843C
81841F:	A2010F  	LDX #$0F01
818422:	8EF517  	STX $17F5
818425:	A903    	LDA #$03
818427:	8DD906  	STA $06D9
81842A:	8006    	BRA $8432
81842C:	A910    	LDA #$10
81842E:	22CB8382	JSR $8283CB
818432:	A908    	LDA #$08
818434:	8DF717  	STA $17F7
818437:	EEDC06  	INC $06DC
81843A:	8000    	BRA $843C
81843C:	4C1383  	JMP $8313
81843F:	CEF717  	DEC $17F7
818442:	D006    	BNE $844A
818444:	A9F5    	LDA #$F5
818446:	22B88382	JSR $8283B8
81844A:	20E888  	JSR $88E8
81844D:	20E38D  	JSR $8DE3
818450:	B006    	BCS $8458
818452:	20B88D  	JSR $8DB8
818455:	4C1383  	JMP $8313
818458:	A9F6    	LDA #$F6
81845A:	22B88382	JSR $8283B8
81845E:	F47E7E  	PEA $7E7E
818461:	AB      	PLB 
818462:	AB      	PLB 
818463:	9CDA06  	STZ $06DA
818466:	9C5534  	STZ $3455
818469:	9C2C3B  	STZ $3B2C
81846C:	9CD934  	STZ $34D9
81846F:	9CB03B  	STZ $3BB0
818472:	20C38E  	JSR $8EC3
818475:	ADD906  	LDA $06D9
818478:	C901    	CMP #$01
81847A:	9014    	BCC $8490
81847C:	F00A    	BEQ $8488
81847E:	A901    	LDA #$01
818480:	8DE531  	STA $31E5
818483:	8DBC38  	STA $38BC
818486:	8010    	BRA $8498
818488:	9CE531  	STZ $31E5
81848B:	9CBC38  	STZ $38BC
81848E:	8008    	BRA $8498
818490:	9CE531  	STZ $31E5
818493:	A901    	LDA #$01
818495:	8DBC38  	STA $38BC
818498:	9CDC06  	STZ $06DC
81849B:	9C4100  	STZ $0041
81849E:	AB      	PLB 
81849F:	6B      	RTL

8184A0:	A20080  	LDX #$8000
8184A3:	A00080  	LDY #$8000
8184A6:	8EDD06  	STX $06DD
8184A9:	8CE006  	STY $06E0
8184AC:	A906    	LDA #$06
8184AE:	8DDF06  	STA $06DF
8184B1:	A97E    	LDA #$7E
8184B3:	8DE206  	STA $06E2
8184B6:	22F68182	JSR $8281F6
8184BA:	F40043  	PEA $4300
8184BD:	2B      	PLD 
8184BE:	A980    	LDA #$80  dma title screen set
8184C0:	8D1521  	STA $2115
8184C3:	A20118  	LDX #$1801
8184C6:	8670    	STX $70
8184C8:	A20080  	LDX #$8000
8184CB:	A97E    	LDA #$7E
8184CD:	8672    	STX $72
8184CF:	8574    	STA $74
8184D1:	A20000  	LDX #$0000
8184D4:	8E1621  	STX $2116
8184D7:	A2C07B  	LDX #$7BC0
8184DA:	8675    	STX $75
8184DC:	A980    	LDA #$80
8184DE:	8D0B42  	STA $420B
8184E1:	60      	RTS

8184E2:	A22CCF  	LDX #$CF2C
8184E5:	A00080  	LDY #$8000
8184E8:	8EDD06  	STX $06DD
8184EB:	8CE006  	STY $06E0
8184EE:	A905    	LDA #$05
8184F0:	8DDF06  	STA $06DF
8184F3:	A97E    	LDA #$7E
8184F5:	8DE206  	STA $06E2
8184F8:	22F68182	JSR $8281F6
8184FC:	F40043  	PEA $4300
8184FF:	2B      	PLD 
818500:	A980    	LDA #$80
818502:	8D1521  	STA $2115
818505:	A20118  	LDX #$1801
818508:	8670    	STX $70
81850A:	A20080  	LDX #$8000
81850D:	A97E    	LDA #$7E
81850F:	8672    	STX $72
818511:	8574    	STA $74
818513:	A20060  	LDX #$6000
818516:	8E1621  	STX $2116
818519:	A2000C  	LDX #$0C00
81851C:	8675    	STX $75
81851E:	A980    	LDA #$80
818520:	8D0B42  	STA $420B
818523:	60      	RTS

818524:	8B      	PHB 
818525:	A274CE  	LDX #$CE74
818528:	A00080  	LDY #$8000
81852B:	8EDD06  	STX $06DD
81852E:	8CE006  	STY $06E0
818531:	A905    	LDA #$05
818533:	8DDF06  	STA $06DF
818536:	A97E    	LDA #$7E
818538:	8DE206  	STA $06E2
81853B:	22F68182	JSR $8281F6
81853F:	F47E7E  	PEA $7E7E
818542:	AB      	PLB 
818543:	AB      	PLB 
818544:	A20080  	LDX #$8000
818547:	22EA8581	JSR $8185EA		write tile pro
81854B:	C220    	REP #$20
81854D:	A20008  	LDX #$0800
818550:	A00208  	LDY #$0802
818553:	A9502A  	LDA #$2A50
818556:	8D0008  	STA $0800
818559:	A9FD0F  	LDA #$0FFD
81855C:	540000  	MVN $00,$00
81855F:	A20080  	LDX #$8000
818562:	A04016  	LDY #$1640
818565:	A97F01  	LDA #$017F
818568:	54007E  	MVN $00,$7E
81856B:	A08009  	LDY #$0980
81856E:	A97F06  	LDA #$067F
818571:	54007E  	MVN $00,$7E
818574:	A24816  	LDX #$1648
818577:	20CC85  	JSR $85CC
81857A:	A27216  	LDX #$1672
81857D:	20CC85  	JSR $85CC
818580:	E220    	SEP #$20
818582:	F40043  	PEA $4300
818585:	2B      	PLD 
818586:	A980    	LDA #$80
818588:	8D1521  	STA $2115
81858B:	A20118  	LDX #$1801
81858E:	8670    	STX $70
818590:	A20048  	LDX #$4800
818593:	8E1621  	STX $2116
818596:	A20008  	LDX #$0800
818599:	A900    	LDA #$00
81859B:	8672    	STX $72
81859D:	8574    	STA $74
81859F:	A20010  	LDX #$1000
8185A2:	8675    	STX $75
8185A4:	A980    	LDA #$80
8185A6:	8D0B42  	STA $420B
8185A9:	A2FFCE  	LDX #$CEFF
8185AC:	A00008  	LDY #$0800
8185AF:	8EDD06  	STX $06DD
8185B2:	8CE006  	STY $06E0
8185B5:	A905    	LDA #$05
8185B7:	8DDF06  	STA $06DF
8185BA:	A97E    	LDA #$7E
8185BC:	8DE206  	STA $06E2
8185BF:	22F68182	JSR $8281F6
8185C3:	A20008  	LDX #$0800
8185C6:	22EA8581	JSR $8185EA write tile pro
8185CA:	AB      	PLB 
8185CB:	60      	RTS

8185CC:	A90600  	LDA #$0006
8185CF:	8D0000  	STA $0000
8185D2:	A9502A  	LDA #$2A50
8185D5:	9D0000  	STA $0000,x
8185D8:	9D0200  	STA $0002,x
8185DB:	9D0400  	STA $0004,x
8185DE:	8A      	TXA 
8185DF:	18      	CLC 
8185E0:	694000  	ADC #$0040
8185E3:	AA      	TAX 
8185E4:	CE0000  	DEC $0000
8185E7:	D0E9    	BNE $85D2
8185E9:	60      	RTS

81884A:	C220    	REP #$20
81884C:	A9502A  	LDA #$2A50
81884F:	A20012  	LDX #$1200
818852:	A04000  	LDY #$0040
818855:	9D0000  	STA $0000,x
818858:	E8      	INX 
818859:	E8      	INX 
81885A:	88      	DEY 
81885B:	D0F8    	BNE $8855
81885D:	A9C02B  	LDA #$2BC0
818860:	A21412  	LDX #$1214
818863:	A00E00  	LDY #$000E
818866:	9D0000  	STA $0000,x
818869:	18      	CLC 
81886A:	691000  	ADC #$0010
81886D:	9D4000  	STA $0040,x
818870:	38      	SEC 
818871:	E90F00  	SBC #$000F
818874:	E8      	INX 
818875:	E8      	INX 
818876:	88      	DEY 
818877:	D0ED    	BNE $8866
818879:	A98000  	LDA #$0080
81887C:	A2E049  	LDX #$49E0
81887F:	A00012  	LDY #$1200
818882:	8D4E00  	STA $004E
818885:	8E5000  	STX $0050
818888:	8C5200  	STY $0052
81888B:	9C5400  	STZ $0054
81888E:	A2CE00  	LDX #$00CE
818891:	A01000  	LDY #$0010
818894:	A9FF7F  	LDA #$7FFF
818897:	9D0000  	STA $0000,x
81889A:	E8      	INX 
81889B:	E8      	INX 
81889C:	88      	DEY 
81889D:	D0F8    	BNE $8897
81889F:	A29A8D  	LDX #$8D9A
8188A2:	A0CE00  	LDY #$00CE
8188A5:	8EFC06  	STX $06FC
8188A8:	8CFE06  	STY $06FE
8188AB:	E220    	SEP #$20
8188AD:	A901    	LDA #$01
8188AF:	8D4200  	STA $0042
8188B2:	60      	RTS

8188E8:	A20010  	LDX #$1000
8188EB:	8E0007  	STX $0700
8188EE:	BC0000  	LDY $0000,x
8188F1:	F01F    	BEQ $8912
8188F3:	FC0000  	JSR ($0000,x)
8188F6:	AE0007  	LDX $0700
8188F9:	DE0500  	DEC $0005,x
8188FC:	1011    	BPL $890F
8188FE:	BD0700  	LDA $0007,x
818901:	1A      	INC A
818902:	DD0800  	CMP $0008,x
818905:	9002    	BCC $8909
818907:	A900    	LDA #$00
818909:	9D0700  	STA $0007,x
81890C:	202489  	JSR $8924
81890F:	208489  	JSR $8984
818912:	C220    	REP #$20
818914:	AD0007  	LDA $0700
818917:	18      	CLC 
818918:	692000  	ADC #$0020
81891B:	AA      	TAX 
81891C:	E220    	SEP #$20
81891E:	E0C010  	CPX #$10C0
818921:	90C8    	BCC $88EB
818923:	60      	RTS

818924:	8B      	PHB 
818925:	F40000  	PEA $0000
818928:	AB      	PLB 
818929:	AB      	PLB 
81892A:	BD0700  	LDA $0007,x
81892D:	C220    	REP #$20
81892F:	29FF00  	AND #$00FF
818932:	8D0000  	STA $0000
818935:	0A      	ASL
818936:	18      	CLC 
818937:	6D0000  	ADC $0000
81893A:	18      	CLC 
81893B:	7D1200  	ADC $0012,x
81893E:	A8      	TAY 
81893F:	E220    	SEP #$20
818941:	B90000  	LDA $0000,Y
818944:	9D0500  	STA $0005,x
818947:	C220    	REP #$20
818949:	B90100  	LDA $0001,Y
81894C:	A8      	TAY 
81894D:	BD0D00  	LDA $000D,x
818950:	29FF00  	AND #$00FF
818953:	8D0000  	STA $0000
818956:	BD1000  	LDA $0010,x
818959:	AA      	TAX 
81895A:	B90200  	LDA $0002,Y
81895D:	9D9002  	STA $0290,x
818960:	B90400  	LDA $0004,Y
818963:	290100  	AND #$0001
818966:	D006    	BNE $896E
818968:	2271A982	JSR $82A971
81896C:	8004    	BRA $8972
81896E:	223DA982	JSR $82A93D
818972:	E8      	INX 
818973:	E8      	INX 
818974:	E8      	INX 
818975:	E8      	INX 
818976:	C8      	INY 
818977:	C8      	INY 
818978:	C8      	INY 
818979:	C8      	INY 
81897A:	C8      	INY 
81897B:	CE0000  	DEC $0000
81897E:	D0DA    	BNE $895A
818980:	E220    	SEP #$20
818982:	AB      	PLB 
818983:	60      	RTS

818984:	8B      	PHB 
818985:	F40000  	PEA $0000
818988:	AB      	PLB 
818989:	AB      	PLB 
81898A:	AE0007  	LDX $0700
81898D:	BD0700  	LDA $0007,x
818990:	C220    	REP #$20
818992:	29FF00  	AND #$00FF
818995:	8D0000  	STA $0000
818998:	0A      	ASL
818999:	18      	CLC 
81899A:	6D0000  	ADC $0000
81899D:	18      	CLC 
81899E:	7D1200  	ADC $0012,x
8189A1:	A8      	TAY 
8189A2:	B90100  	LDA $0001,Y
8189A5:	A8      	TAY 
8189A6:	BD0300  	LDA $0003,x
8189A9:	8D0200  	STA $0002
8189AC:	BD0D00  	LDA $000D,x
8189AF:	29FF00  	AND #$00FF
8189B2:	8D0000  	STA $0000
8189B5:	BD1000  	LDA $0010,x
8189B8:	AA      	TAX 
8189B9:	E220    	SEP #$20
8189BB:	B90000  	LDA $0000,Y
8189BE:	3015    	BMI $89D5
8189C0:	18      	CLC 
8189C1:	6D0200  	ADC $0002
8189C4:	9D8E02  	STA $028E,x
8189C7:	9006    	BCC $89CF
8189C9:	2299A982	JSR $82A999
8189CD:	8019    	BRA $89E8
8189CF:	22CDA982	JSR $82A9CD
8189D3:	8013    	BRA $89E8
8189D5:	18      	CLC 
8189D6:	6D0200  	ADC $0002
8189D9:	9D8E02  	STA $028E,x
8189DC:	9006    	BCC $89E4
8189DE:	22CDA982	JSR $82A9CD
8189E2:	8004    	BRA $89E8
8189E4:	2299A982	JSR $82A999
8189E8:	AD0300  	LDA $0003
8189EB:	18      	CLC 
8189EC:	790100  	ADC $0001,Y
8189EF:	9D8F02  	STA $028F,x
8189F2:	E8      	INX 
8189F3:	E8      	INX 
8189F4:	E8      	INX 
8189F5:	E8      	INX 
8189F6:	C8      	INY 
8189F7:	C8      	INY 
8189F8:	C8      	INY 
8189F9:	C8      	INY 
8189FA:	C8      	INY 
8189FB:	CE0000  	DEC $0000
8189FE:	D0BB    	BNE $89BB
818A00:	AB      	PLB 
818A01:	60      	RTS

818B53:	AE0007  	LDX $0700
818B56:	DE0900  	DEC $0009,x
818B59:	1049    	BPL $8BA4
818B5B:	BD0A00  	LDA $000A,x
818B5E:	9D0900  	STA $0009,x
818B61:	C220    	REP #$20
818B63:	BD0B00  	LDA $000B,x
818B66:	29FF00  	AND #$00FF
818B69:	0A      	ASL
818B6A:	18      	CLC 
818B6B:	7D1400  	ADC $0014,x
818B6E:	A8      	TAY 
818B6F:	E220    	SEP #$20
818B71:	BD0E00  	LDA $000E,x
818B74:	D00C    	BNE $8B82
818B76:	BD0300  	LDA $0003,x
818B79:	18      	CLC 
818B7A:	790000  	ADC $0000,Y
818B7D:	9D0300  	STA $0003,x
818B80:	800A    	BRA $8B8C
818B82:	BD0300  	LDA $0003,x
818B85:	38      	SEC 
818B86:	F90000  	SBC $0000,Y
818B89:	9D0300  	STA $0003,x
818B8C:	BD0400  	LDA $0004,x
818B8F:	18      	CLC 
818B90:	790100  	ADC $0001,Y
818B93:	9D0400  	STA $0004,x
818B96:	BD0B00  	LDA $000B,x
818B99:	1A      	INC A
818B9A:	DD0C00  	CMP $000C,x
818B9D:	9002    	BCC $8BA1
818B9F:	A900    	LDA #$00
818BA1:	9D0B00  	STA $000B,x
818BA4:	60      	RTS

#########TAISEN##########
819147:	ADD906  	LDA $06D9
81914A:	C902    	CMP #$02
81914C:	9003    	BCC $9151
81914E:	4CD292  	JMP $92D2
819151:	8B      	PHB 
819152:	A980    	LDA #$80
819154:	8D0021  	STA $2100
819157:	A26A93  	LDX #$936A
81915A:	22318200	JSR $008231	write PPU
81915E:	226A8200	JSR $00826A	init oam
819162:	20D392  	JSR $92D3	dma bg1+bg2 set
819165:	206693  	JSR $9366	dma obj
819168:	20AC93  	JSR $93AC	write bg1 map buffer
81916B:	20B294  	JSR $94B2	dma bg1 map
81916E:	200B96  	JSR $960B  dma bg2map
819171:	A24694  	LDX #$9446
819174:	22928200	JSR $008292	write color
819178:	202DA1  	JSR $A12D	init ram
81917B:	20A695  	JSR $95A6	dma bg1 map
81917E:	20CE95  	JSR $95CE
819181:	A90A    	LDA #$0A
819183:	20689D  	JSR $9D68
819186:	A90A    	LDA #$0A
819188:	20F79D  	JSR $9DF7
81918B:	223D8100	JSR $00813D
81918F:	209DA0  	JSR $A09D
819192:	A9F6    	LDA #$F6
819194:	22B88382	JSR $8283B8
819198:	A94C    	LDA #$4C
81919A:	227B8382	JSR $82837B
81919E:	A903    	LDA #$03
8191A0:	22648382	JSR $828364
8191A4:	A900    	LDA #$00
8191A6:	8D0021  	STA $2100
8191A9:	9CF00F  	STZ $0FF0
8191AC:	9CF10F  	STZ $0FF1
8191AF:	9CB907  	STZ $07B9
8191B2:	9C4100  	STZ $0041
8191B5:	22098382	JSR $828309
8191B9:	AD4100  	LDA $0041
8191BC:	F0F7    	BEQ $91B5
8191BE:	20A695  	JSR $95A6	dma bg1 map
8191C1:	2001A1  	JSR $A101
8191C4:	20E888  	JSR $88E8
8191C7:	CEF00F  	DEC $0FF0
8191CA:	1014    	BPL $91E0
8191CC:	A901    	LDA #$01
8191CE:	8DF00F  	STA $0FF0
8191D1:	ADF10F  	LDA $0FF1
8191D4:	1A      	INC A
8191D5:	C910    	CMP #$10
8191D7:	F00C    	BEQ $91E5
8191D9:	8DF10F  	STA $0FF1
8191DC:	8F002100	STA $002100
8191E0:	9C4100  	STZ $0041
8191E3:	80D0    	BRA $91B5
8191E5:	A2999A  	LDX #$9A99
8191E8:	8E8010  	STX $1080
8191EB:	9C8210  	STZ $1082
8191EE:	ADD906  	LDA $06D9
8191F1:	F009    	BEQ $91FC
8191F3:	A20B9C  	LDX #$9C0B
8191F6:	8EA010  	STX $10A0
8191F9:	9CA210  	STZ $10A2
8191FC:	9C4100  	STZ $0041
8191FF:	22098382	JSR $828309
819203:	AD4100  	LDA $0041
819206:	F0F7    	BEQ $91FF
819208:	20A695  	JSR $95A6
81920B:	2001A1  	JSR $A101
81920E:	20E888  	JSR $88E8
819211:	229D8482	JSR $82849D
819215:	204DA1  	JSR $A14D
819218:	ADB907  	LDA $07B9
81921B:	D029    	BNE $9246
81921D:	AD4210  	LDA $1042
819220:	C905    	CMP #$05
819222:	D007    	BNE $922B
819224:	AD6210  	LDA $1062
819227:	C905    	CMP #$05
819229:	F005    	BEQ $9230
81922B:	9C4100  	STZ $0041
81922E:	80CF    	BRA $91FF
819230:	A9F6    	LDA #$F6
819232:	22B88382	JSR $8283B8
819236:	A902    	LDA #$02
819238:	22B88382	JSR $8283B8
81923C:	A901    	LDA #$01
81923E:	8DF00F  	STA $0FF0
819241:	9C4100  	STZ $0041
819244:	8012    	BRA $9258
819246:	A901    	LDA #$01
819248:	8DF00F  	STA $0FF0
81924B:	A90F    	LDA #$0F
81924D:	8DF10F  	STA $0FF1
819250:	8D0021  	STA $2100
819253:	9C4100  	STZ $0041
819256:	802B    	BRA $9283
819258:	AD4100  	LDA $0041
81925B:	F0FB    	BEQ $9258
81925D:	20A695  	JSR $95A6
819260:	2001A1  	JSR $A101
819263:	20E888  	JSR $88E8
819266:	CEF00F  	DEC $0FF0
819269:	3005    	BMI $9270
81926B:	9C4100  	STZ $0041
81926E:	80E8    	BRA $9258
819270:	209C9E  	JSR $9E9C
819273:	A9A0    	LDA #$A0
819275:	8DF00F  	STA $0FF0
819278:	A90F    	LDA #$0F
81927A:	8DF10F  	STA $0FF1
81927D:	8D0021  	STA $2100
819280:	9C4100  	STZ $0041
819283:	AD4100  	LDA $0041
819286:	F0FB    	BEQ $9283
819288:	20A695  	JSR $95A6
81928B:	2001A1  	JSR $A101
81928E:	20E888  	JSR $88E8
819291:	CEF00F  	DEC $0FF0
819294:	D019    	BNE $92AF
819296:	ADB907  	LDA $07B9
819299:	D004    	BNE $929F
81929B:	A902    	LDA #$02
81929D:	8002    	BRA $92A1
81929F:	A901    	LDA #$01
8192A1:	8DF00F  	STA $0FF0
8192A4:	CEF10F  	DEC $0FF1
8192A7:	300B    	BMI $92B4
8192A9:	ADF10F  	LDA $0FF1
8192AC:	8D0021  	STA $2100
8192AF:	9C4100  	STZ $0041
8192B2:	80CF    	BRA $9283
8192B4:	A9F6    	LDA #$F6
8192B6:	22B88382	JSR $8283B8
8192BA:	9C4D00  	STZ $004D
8192BD:	9C4100  	STZ $0041
8192C0:	AD4100  	LDA $0041
8192C3:	F0FB    	BEQ $92C0
8192C5:	A980    	LDA #$80
8192C7:	8D0021  	STA $2100
8192CA:	9C4100  	STZ $0041
8192CD:	AB      	PLB 
8192CE:	ADB907  	LDA $07B9
8192D1:	4A      	LSR A
8192D2:	6B      	RTL

#####DMA TAISEN BG1, BG2 SET###########
8192D3:	A259D8  	LDX #$D859
8192D6:	A00080  	LDY #$8000
8192D9:	8EDD06  	STX $06DD
8192DC:	8CE006  	STY $06E0
8192DF:	A906    	LDA #$06
8192E1:	8DDF06  	STA $06DF
8192E4:	A97E    	LDA #$7E
8192E6:	8DE206  	STA $06E2
8192E9:	22F68182	JSR $8281F6
8192ED:	A2A989  	LDX #$89A9
8192F0:	A000C0  	LDY #$C000
8192F3:	8EDD06  	STX $06DD
8192F6:	8CE006  	STY $06E0
8192F9:	A905    	LDA #$05
8192FB:	8DDF06  	STA $06DF
8192FE:	A97E    	LDA #$7E
819300:	8DE206  	STA $06E2
819303:	22F68182	JSR $8281F6
819307:	F40043  	PEA $4300
81930A:	2B      	PLD 
81930B:	A980    	LDA #$80
81930D:	8D1521  	STA $2115
819310:	A20118  	LDX #$1801
819313:	8670    	STX $70
819315:	A20080  	LDX #$8000
819318:	A97E    	LDA #$7E
81931A:	8672    	STX $72
81931C:	8574    	STA $74
81931E:	A20000  	LDX #$0000
819321:	8E1621  	STX $2116
819324:	A20060  	LDX #$6000
819327:	8675    	STX $75
819329:	A980    	LDA #$80
81932B:	8D0B42  	STA $420B
81932E:	A228EF  	LDX #$EF28
819331:	A00080  	LDY #$8000
819334:	A905    	LDA #$05
819336:	8EDD06  	STX $06DD
819339:	8CE006  	STY $06E0
81933C:	8DDF06  	STA $06DF
81933F:	A97E    	LDA #$7E
819341:	8DE206  	STA $06E2
819344:	22F68182	JSR $8281F6
819348:	F40043  	PEA $4300
81934B:	2B      	PLD 
81934C:	A20080  	LDX #$8000
81934F:	A97E    	LDA #$7E
819351:	8672    	STX $72
819353:	8574    	STA $74
819355:	A20040  	LDX #$4000
819358:	8E1621  	STX $2116
81935B:	A20008  	LDX #$0800
81935E:	8675    	STX $75
819360:	A980    	LDA #$80
819362:	8D0B42  	STA $420B
819365:	60      	RTS

######DMA TAISEN OBJ########
819366:	A28AEB  	LDX #$EB8A
819369:	A00080  	LDY #$8000
81936C:	A905    	LDA #$05
81936E:	209993  	JSR $9399
819371:	F40043  	PEA $4300
819374:	2B      	PLD 
819375:	A980    	LDA #$80
819377:	8D1521  	STA $2115
81937A:	A20118  	LDX #$1801
81937D:	8670    	STX $70
81937F:	A20080  	LDX #$8000
819382:	A97E    	LDA #$7E
819384:	8672    	STX $72
819386:	8574    	STA $74
819388:	A20060  	LDX #$6000
81938B:	8E1621  	STX $2116
81938E:	A20008  	LDX #$0800
819391:	8675    	STX $75
819393:	A980    	LDA #$80
819395:	8D0B42  	STA $420B
819398:	60      	RTS

819399:	8EDD06  	STX $06DD
81939C:	8CE006  	STY $06E0
81939F:	8DDF06  	STA $06DF
8193A2:	A97E    	LDA #$7E
8193A4:	8DE206  	STA $06E2
8193A7:	22F68182	JSR $8281F6
8193AB:	60      	RTS

######WRITE BG1 MAP BUFFER#########
8193AC:	8B      	PHB 
8193AD:	F47E7E  	PEA $7E7E
8193B0:	AB      	PLB 
8193B1:	AB      	PLB 
8193B2:	A20000  	LDX #$0000
8193B5:	C220    	REP #$20
8193B7:	A92000  	LDA #$0020
8193BA:	9D1020  	STA $2010,x
8193BD:	E8      	INX 
8193BE:	E8      	INX 
8193BF:	E00008  	CPX #$0800
8193C2:	90F6    	BCC $93BA
8193C4:	E220    	SEP #$20
8193C6:	20CB93  	JSR $93CB
8193C9:	AB      	PLB 
8193CA:	60      	RTS

8193CB:	A26894  	LDX #$9468
8193CE:	ADD906  	LDA $06D9
8193D1:	F003    	BEQ $93D6
8193D3:	A28894  	LDX #$9488
8193D6:	8E0000  	STX $0000
8193D9:	A04000  	LDY #$0040
8193DC:	C220    	REP #$20
8193DE:	9C0200  	STZ $0002
8193E1:	A90300  	LDA #$0003
8193E4:	8D0400  	STA $0004
8193E7:	AE0000  	LDX $0000
8193EA:	A92000  	LDA #$0020
8193ED:	8D0600  	STA $0006
8193F0:	4B      	PHK 
8193F1:	AB      	PLB 
8193F2:	BD0000  	LDA $0000,x
8193F5:	29FF00  	AND #$00FF
8193F8:	E8      	INX 
8193F9:	18      	CLC 
8193FA:	6D0200  	ADC $0002
8193FD:	F47E7E  	PEA $7E7E
819400:	AB      	PLB 
819401:	AB      	PLB 
819402:	991020  	STA $2010,Y
819405:	C8      	INY 
819406:	C8      	INY 
819407:	CE0600  	DEC $0006
81940A:	D0E4    	BNE $93F0
81940C:	AD0200  	LDA $0002
81940F:	18      	CLC 
819410:	691000  	ADC #$0010
819413:	8D0200  	STA $0002
819416:	CE0400  	DEC $0004
819419:	D0CC    	BNE $93E7
81941B:	E220    	SEP #$20
81941D:	ADD906  	LDA $06D9
819420:	D045    	BNE $9467
819422:	C220    	REP #$20
819424:	ADDA06  	LDA $06DA
819427:	29FF00  	AND #$00FF
81942A:	1A      	INC A
81942B:	AA      	TAX 
81942C:	4B      	PHK 
81942D:	AB      	PLB 
81942E:	BDA894  	LDA $94A8,x
819431:	29FF00  	AND #$00FF
819434:	F47E7E  	PEA $7E7E
819437:	A27C20  	LDX #$207C
81943A:	AB      	PLB 
81943B:	AB      	PLB 
81943C:	9D0000  	STA $0000,x
81943F:	1A      	INC A
819440:	9D0200  	STA $0002,x
819443:	1A      	INC A
819444:	9D0400  	STA $0004,x
819447:	18      	CLC 
819448:	691000  	ADC #$0010
81944B:	9D4400  	STA $0044,x
81944E:	3A      	DEC A
81944F:	9D4200  	STA $0042,x
819452:	3A      	DEC A
819453:	9D4000  	STA $0040,x
819456:	18      	CLC 
819457:	691000  	ADC #$0010
81945A:	9D8000  	STA $0080,x
81945D:	1A      	INC A
81945E:	9D8200  	STA $0082,x
819461:	1A      	INC A
819462:	9D8400  	STA $0084,x
819465:	E220    	SEP #$20
819467:	60      	RTS

8194B2:	8B      	PHB 
8194B3:	F47E7E  	PEA $7E7E
8194B6:	AB      	PLB 
8194B7:	AB      	PLB 
8194B8:	A02000  	LDY #$0020
8194BB:	ADD906  	LDA $06D9
8194BE:	D01B    	BNE $94DB
8194C0:	A29204  	LDX #$0492
8194C3:	A905    	LDA #$05
8194C5:	20EE94  	JSR $94EE
8194C8:	A0F000  	LDY #$00F0
8194CB:	A901    	LDA #$01
8194CD:	20EE94  	JSR $94EE
8194D0:	A26E95  	LDX #$956E
8194D3:	A09204  	LDY #$0492
8194D6:	201495  	JSR $9514
8194D9:	8011    	BRA $94EC
8194DB:	A29203  	LDX #$0392
8194DE:	A90E    	LDA #$0E
8194E0:	20EE94  	JSR $94EE
8194E3:	A27F95  	LDX #$957F
8194E6:	A09203  	LDY #$0392
8194E9:	201495  	JSR $9514
8194EC:	AB      	PLB 
8194ED:	60      	RTS

8194EE:	8D0000  	STA $0000
8194F1:	A90E    	LDA #$0E
8194F3:	8D0100  	STA $0001
8194F6:	98      	TYA 
8194F7:	9D1020  	STA $2010,x
8194FA:	E8      	INX 
8194FB:	E8      	INX 
8194FC:	C8      	INY 
8194FD:	CE0100  	DEC $0001
819500:	D0F4    	BNE $94F6
819502:	C220    	REP #$20
819504:	8A      	TXA 
819505:	18      	CLC 
819506:	692400  	ADC #$0024
819509:	AA      	TAX 
81950A:	E220    	SEP #$20
81950C:	C8      	INY 
81950D:	C8      	INY 
81950E:	CE0000  	DEC $0000
819511:	D0DE    	BNE $94F1
819513:	60      	RTS

819514:	4B      	PHK 
819515:	AB      	PLB 
819516:	BD0000  	LDA $0000,x
819519:	E8      	INX 
81951A:	C9FF    	CMP #$FF
81951C:	F04F    	BEQ $956D
81951E:	C9FE    	CMP #$FE
819520:	D016    	BNE $9538
819522:	BD0000  	LDA $0000,x
819525:	E8      	INX 
819526:	C220    	REP #$20
819528:	29FF00  	AND #$00FF
81952B:	8D0200  	STA $0002
81952E:	98      	TYA 
81952F:	18      	CLC 
819530:	6D0200  	ADC $0002
819533:	A8      	TAY 
819534:	E220    	SEP #$20
819536:	80DE    	BRA $9516
819538:	EB      	XBA 
819539:	BD0000  	LDA $0000,x
81953C:	E8      	INX 
81953D:	8D0200  	STA $0002
819540:	F47E7E  	PEA $7E7E
819543:	AB      	PLB 
819544:	AB      	PLB 
819545:	EB      	XBA 
819546:	C900    	CMP #$00
819548:	3015    	BMI $955F
81954A:	991120  	STA $2011,Y
81954D:	995120  	STA $2051,Y
819550:	999120  	STA $2091,Y
819553:	99D120  	STA $20D1,Y
819556:	C8      	INY 
819557:	C8      	INY 
819558:	CE0200  	DEC $0002
81955B:	D0ED    	BNE $954A
81955D:	80B5    	BRA $9514
81955F:	297F    	AND #$7F
819561:	991120  	STA $2011,Y
819564:	C8      	INY 
819565:	C8      	INY 
819566:	CE0200  	DEC $0002
819569:	D0F6    	BNE $9561
81956B:	80A7    	BRA $9514
81956D:	60      	RTS

########DMA TAISEN BG1 MAP########
8195A6:	F40043  	PEA $4300
8195A9:	2B      	PLD 
8195AA:	A980    	LDA #$80
8195AC:	8D1521  	STA $2115
8195AF:	A20118  	LDX #$1801
8195B2:	8670    	STX $70
8195B4:	A20034  	LDX #$3400
8195B7:	8E1621  	STX $2116
8195BA:	A21020  	LDX #$2010
8195BD:	A97E    	LDA #$7E
8195BF:	8672    	STX $72
8195C1:	8574    	STA $74
8195C3:	A24007  	LDX #$0740
8195C6:	8675    	STX $75
8195C8:	A980    	LDA #$80
8195CA:	8D0B42  	STA $420B
8195CD:	60      	RTS

8195CE:	C220    	REP #$20
8195D0:	A20010  	LDX #$1000
8195D3:	A00110  	LDY #$1001
8195D6:	9C0010  	STZ $1000
8195D9:	A9FE07  	LDA #$07FE
8195DC:	540000  	MVN $00,$00
8195DF:	E220    	SEP #$20
8195E1:	A2B996  	LDX #$96B9
8195E4:	8E0010  	STX $1000
8195E7:	9C0210  	STZ $1002
8195EA:	A2E297  	LDX #$97E2
8195ED:	8E4010  	STX $1040
8195F0:	9C4210  	STZ $1042
8195F3:	ADD906  	LDA $06D9
8195F6:	F012    	BEQ $960A
8195F8:	A25697  	LDX #$9756
8195FB:	8E2010  	STX $1020
8195FE:	9C2210  	STZ $1022
819601:	A2DB99  	LDX #$99DB
819604:	8E6010  	STX $1060
819607:	9C6210  	STZ $1062
81960A:	60      	RTS

#######DMA TAISEN BG2 MAP##########
81960B:	8B      	PHB 
81960C:	4B      	PHK 
81960D:	AB      	PLB 
81960E:	C220    	REP #$20
819610:	A20000  	LDX #$0000
819613:	A00000  	LDY #$0000
819616:	A90800  	LDA #$0008
819619:	8D0000  	STA $0000
81961C:	A90400  	LDA #$0004
81961F:	8D0200  	STA $0002
819622:	A90800  	LDA #$0008
819625:	8D0400  	STA $0004
819628:	BD7C96  	LDA $967C,x
81962B:	29FF00  	AND #$00FF
81962E:	090010  	ORA #$1000
819631:	990008  	STA $0800,Y
819634:	C8      	INY 
819635:	C8      	INY 
819636:	1A      	INC A
819637:	CE0400  	DEC $0004
81963A:	D0F5    	BNE $9631
81963C:	CE0200  	DEC $0002
81963F:	D0E1    	BNE $9622
819641:	E8      	INX 
819642:	CE0000  	DEC $0000
819645:	D0D5    	BNE $961C
819647:	A20008  	LDX #$0800
81964A:	A0000A  	LDY #$0A00
81964D:	A9FF05  	LDA #$05FF
819650:	540000  	MVN $00,$00
819653:	E220    	SEP #$20
819655:	F40043  	PEA $4300
819658:	2B      	PLD 
819659:	A980    	LDA #$80
81965B:	8D1521  	STA $2115
81965E:	A20118  	LDX #$1801
819661:	8670    	STX $70
819663:	A20038  	LDX #$3800
819666:	8E1621  	STX $2116
819669:	A20008  	LDX #$0800
81966C:	8672    	STX $72
81966E:	6474    	STZ $74
819670:	A20008  	LDX #$0800
819673:	8675    	STX $75
819675:	A980    	LDA #$80
819677:	8D0B42  	STA $420B
81967A:	AB      	PLB 
81967B:	60      	RTS

819684:	8D0000  	STA $0000
819687:	DA      	PHX 
819688:	C900    	CMP #$00
81968A:	D006    	BNE $9692
81968C:	AF52347E	LDA $7E3452
819690:	8004    	BRA $9696
819692:	AF293B7E	LDA $7E3B29
819696:	C220    	REP #$20
819698:	29FF00  	AND #$00FF
81969B:	AA      	TAX 
81969C:	E220    	SEP #$20
81969E:	8B      	PHB 
81969F:	4B      	PHK 
8196A0:	AB      	PLB 
8196A1:	BDAF96  	LDA $96AF,x
8196A4:	AB      	PLB 
8196A5:	FA      	PLX 
8196A6:	18      	CLC 
8196A7:	6D0000  	ADC $0000
8196AA:	22CB8382	JSR $8283CB
8196AE:	60      	RTS

8196B9:	A900    	LDA #$00
8196BB:	EB      	XBA 
8196BC:	BD0200  	LDA $0002,x
8196BF:	0A      	ASL
8196C0:	AA      	TAX 
8196C1:	7CC496  	JMP ($96C4,x)
8196C4:
	dw $96CC, $970B, $973A, $973E
	
8196CC:	AE0007  	LDX $0700
8196CF:	9E0500  	STZ $0005,x
8196D2:	C220    	REP #$20
8196D4:	A90018  	LDA #$1800
8196D7:	9D0300  	STA $0003,x
8196DA:	A90001  	LDA #$0100
8196DD:	9D0700  	STA $0007,x
8196E0:	A90004  	LDA #$0400
8196E3:	9D0900  	STA $0009,x
8196E6:	A90005  	LDA #$0500
8196E9:	9D0B00  	STA $000B,x
8196EC:	A90600  	LDA #$0006
8196EF:	9D0D00  	STA $000D,x
8196F2:	A90000  	LDA #$0000
8196F5:	9D1000  	STA $0010,x
8196F8:	A9E896  	LDA #$96E8
8196FB:	9D1200  	STA $0012,x
8196FE:	A9F499  	LDA #$99F4
819701:	9D1400  	STA $0014,x
819704:	E220    	SEP #$20
819706:	A901    	LDA #$01
819708:	9D0200  	STA $0002,x

81970B:	AE0007  	LDX $0700
81970E:	ADD906  	LDA $06D9
819711:	D00F    	BNE $9722
819713:	BD0300  	LDA $0003,x
819716:	18      	CLC 
819717:	6908    	ADC #$08
819719:	C9AC    	CMP #$AC
81971B:	B014    	BCS $9731
81971D:	9D0300  	STA $0003,x
819720:	8014    	BRA $9736
819722:	BD0300  	LDA $0003,x
819725:	18      	CLC 
819726:	6904    	ADC #$04
819728:	C96C    	CMP #$6C
81972A:	B005    	BCS $9731
81972C:	9D0300  	STA $0003,x
81972F:	8005    	BRA $9736
819731:	A902    	LDA #$02
819733:	9D0200  	STA $0002,x
819736:	20538B  	JSR $8B53
819739:	60      	RTS
 
81973A:	20538B  	JSR $8B53
81973D:	60      	RTS

81973E:	20538B  	JSR $8B53
819741:	BD0300  	LDA $0003,x
819744:	38      	SEC 
819745:	E904    	SBC #$04
819747:	C968    	CMP #$68
819749:	9005    	BCC $9750
81974B:	9D0300  	STA $0003,x
81974E:	8005    	BRA $9755
819750:	A902    	LDA #$02
819752:	9D0200  	STA $0002,x
819755:	60      	RTS

819756:	A900    	LDA #$00
819758:	EB      	XBA 
819759:	BD0200  	LDA $0002,x
81975C:	0A      	ASL
81975D:	AA      	TAX 
81975E:	7C6197  	JMP ($9761,x)
819761:
	dw $9767, $97C3, $97DE
	
819767:	AE0007  	LDX $0700
81976A:	9E0500  	STZ $0005,x
81976D:	C220    	REP #$20
81976F:	A9FF18  	LDA #$18FF
819772:	9D0300  	STA $0003,x
819775:	A90001  	LDA #$0100
819778:	9D0700  	STA $0007,x
81977B:	A90004  	LDA #$0400
81977E:	9D0900  	STA $0009,x
819781:	A90005  	LDA #$0500
819784:	9D0B00  	STA $000B,x
819787:	A90501  	LDA #$0105
81978A:	9D0D00  	STA $000D,x
81978D:	A91800  	LDA #$0018
819790:	9D1000  	STA $0010,x
819793:	ADD906  	LDA $06D9
819796:	29FF00  	AND #$00FF
819799:	D015    	BNE $97B0
81979B:	E220    	SEP #$20
81979D:	AD0910  	LDA $1009
8197A0:	9D0900  	STA $0009,x
8197A3:	AD0B10  	LDA $100B
8197A6:	9D0B00  	STA $000B,x
8197A9:	C220    	REP #$20
8197AB:	A9EE96  	LDA #$96EE
8197AE:	8003    	BRA $97B3

8197B0:	A9EB96  	LDA #$96EB
8197B3:	9D1200  	STA $0012,x
8197B6:	A9F499  	LDA #$99F4
8197B9:	9D1400  	STA $0014,x
8197BC:	E220    	SEP #$20
8197BE:	A901    	LDA #$01
8197C0:	9D0200  	STA $0002,x
8197C3:	AE0007  	LDX $0700
8197C6:	BD0300  	LDA $0003,x
8197C9:	38      	SEC 
8197CA:	E904    	SBC #$04
8197CC:	C997    	CMP #$97
8197CE:	9005    	BCC $97D5
8197D0:	9D0300  	STA $0003,x
8197D3:	8005    	BRA $97DA
8197D5:	A902    	LDA #$02
8197D7:	9D0200  	STA $0002,x
8197DA:	20538B  	JSR $8B53
8197DD:	60      	RTS
 
8197DE:	20538B  	JSR $8B53
8197E1:	60      	RTS

8197E2:	A900    	LDA #$00
8197E4:	EB      	XBA 
8197E5:	BD0200  	LDA $0002,x
8197E8:	0A      	ASL
8197E9:	AA      	TAX 
8197EA:	7CED97  	JMP ($97ED,x)
8197ED:
	dw $97FF, $982C, $9858, $9859, $988A, $98DF, $98E0, $98FE, $9913
	
8197FF:	AE0007  	LDX $0700
819802:	9E0500  	STZ $0005,x
819805:	C220    	REP #$20
819807:	A90017  	LDA #$1700
81980A:	9D0300  	STA $0003,x
81980D:	A90001  	LDA #$0100

819810:	9D0700  	STA $0007,x
819813:	A91E00  	LDA #$001E
819816:	9D0D00  	STA $000D,x
819819:	A92C00  	LDA #$002C
81981C:	9D1000  	STA $0010,x
81981F:	A94197  	LDA #$9741
819822:	9D1200  	STA $0012,x
819825:	E220    	SEP #$20
819827:	A901    	LDA #$01
819829:	9D0200  	STA $0002,x

81982C:	AE0007  	LDX $0700
81982F:	ADD906  	LDA $06D9
819832:	D00F    	BNE $9843
819834:	BD0300  	LDA $0003,x
819837:	18      	CLC 
819838:	6908    	ADC #$08
81983A:	C9AC    	CMP #$AC
81983C:	B014    	BCS $9852
81983E:	9D0300  	STA $0003,x
819841:	8014    	BRA $9857
819843:	BD0300  	LDA $0003,x
819846:	18      	CLC 
819847:	6904    	ADC #$04
819849:	C96C    	CMP #$6C
81984B:	B005    	BCS $9852
81984D:	9D0300  	STA $0003,x
819850:	8005    	BRA $9857
819852:	A902    	LDA #$02
819854:	9D0200  	STA $0002,x
819857:	60      	RTS
 
819858:	60      	RTS
 
819859:	AE0007  	LDX $0700
81985C:	AC5600  	LDY $0056
81985F:	C00007  	CPY #$0700
819862:	F025    	BEQ $9889
819864:	C220    	REP #$20
819866:	A90002  	LDA #$0200
819869:	9D0900  	STA $0009,x
81986C:	A90009  	LDA #$0900
81986F:	9D0B00  	STA $000B,x
819872:	A9FE99  	LDA #$99FE
819875:	9D1400  	STA $0014,x
819878:	E220    	SEP #$20
81987A:	9E0500  	STZ $0005,x
81987D:	AF52347E	LDA $7E3452
819881:	20689D  	JSR $9D68
819884:	A904    	LDA #$04
819886:	9D0200  	STA $0002,x
819889:	60      	RTS
 
81988A:	AE0007  	LDX $0700
81988D:	20538B  	JSR $8B53
819890:	BD0B00  	LDA $000B,x
819893:	C908    	CMP #$08
819895:	9047    	BCC $98DE
819897:	ADD906  	LDA $06D9
81989A:	D03D    	BNE $98D9
81989C:	A903    	LDA #$03
81989E:	8D0210  	STA $1002
8198A1:	A05697  	LDY #$9756
8198A4:	8C2010  	STY $1020
8198A7:	9C2210  	STZ $1022
8198AA:	A00000  	LDY #$0000
8198AD:	8C8010  	STY $1080
8198B0:	C220    	REP #$20
8198B2:	A01C01  	LDY #$011C
8198B5:	A900F0  	LDA #$F000
8198B8:	998E02  	STA $028E,Y
8198BB:	C8      	INY 
8198BC:	C8      	INY 
8198BD:	C8      	INY 
8198BE:	C8      	INY 
8198BF:	C07401  	CPY #$0174
8198C2:	90F4    	BCC $98B8
8198C4:	E220    	SEP #$20
8198C6:	204B99  	JSR $994B
8198C9:	A0DB99  	LDY #$99DB
8198CC:	8C6010  	STY $1060
8198CF:	9C6210  	STZ $1062
8198D2:	A906    	LDA #$06
8198D4:	9D0200  	STA $0002,x
8198D7:	8005    	BRA $98DE
8198D9:	A905    	LDA #$05
8198DB:	9D0200  	STA $0002,x
8198DE:	60      	RTS
 
8198DF:	60      	RTS
 
8198E0:	AE0007  	LDX $0700
8198E3:	207B99  	JSR $997B
8198E6:	BD0300  	LDA $0003,x
8198E9:	38      	SEC 
8198EA:	E904    	SBC #$04
8198EC:	C968    	CMP #$68
8198EE:	9005    	BCC $98F5
8198F0:	9D0300  	STA $0003,x
8198F3:	8008    	BRA $98FD
8198F5:	209699  	JSR $9996
8198F8:	A907    	LDA #$07
8198FA:	9D0200  	STA $0002,x
8198FD:	60      	RTS
 
8198FE:	AE0007  	LDX $0700
819901:	AD6210  	LDA $1062
819904:	C902    	CMP #$02
819906:	D00A    	BNE $9912
819908:	A910    	LDA #$10
81990A:	8DF00F  	STA $0FF0
81990D:	A908    	LDA #$08
81990F:	9D0200  	STA $0002,x
819912:	60      	RTS
 
819913:	AE0007  	LDX $0700
819916:	ADF00F  	LDA $0FF0
819919:	3010    	BMI $992B
81991B:	3A      	DEC A
81991C:	8DF00F  	STA $0FF0
81991F:	1029    	BPL $994A
819921:	A901    	LDA #$01
819923:	8DF10F  	STA $0FF1
819926:	20E59E  	JSR $9EE5
819929:	801F    	BRA $994A
81992B:	AD2200  	LDA $0022
81992E:	2980    	AND #$80
819930:	8D0000  	STA $0000
819933:	AD2300  	LDA $0023
819936:	2910    	AND #$10
819938:	0D0000  	ORA $0000
81993B:	D005    	BNE $9942
81993D:	CEF10F  	DEC $0FF1
819940:	D008    	BNE $994A
819942:	A905    	LDA #$05
819944:	8D6210  	STA $1062
819947:	9D0200  	STA $0002,x
81994A:	60      	RTS
 
81994B:	C220    	REP #$20
81994D:	8B      	PHB 
81994E:	4B      	PHK 
81994F:	AB      	PLB 
819950:	A00000  	LDY #$0000
819953:	B9CE99  	LDA $99CE,Y
819956:	99E00F  	STA $0FE0,Y
819959:	C8      	INY 
81995A:	C8      	INY 
81995B:	C00D00  	CPY #$000D
81995E:	90F3    	BCC $9953
819960:	A90043  	LDA #$4300
819963:	5B      	TCD 
819964:	E220    	SEP #$20
819966:	A0020E  	LDY #$0E02
819969:	8420    	STY $20
81996B:	A0E00F  	LDY #$0FE0
81996E:	8422    	STY $22
819970:	6424    	STZ $24
819972:	6427    	STZ $27
819974:	A907    	LDA #$07
819976:	8D4D00  	STA $004D
819979:	AB      	PLB 
81997A:	60      	RTS
 
81997B:	C220    	REP #$20
81997D:	ADE40F  	LDA $0FE4
819980:	C9F03F  	CMP #$3FF0
819983:	F00E    	BEQ $9993
819985:	3A      	DEC A
819986:	29FF3F  	AND #$3FFF
819989:	8DE40F  	STA $0FE4
81998C:	ADE70F  	LDA $0FE7
81998F:	1A      	INC A
819990:	8DE70F  	STA $0FE7
819993:	E220    	SEP #$20
819995:	60      	RTS
 
819996:	8B      	PHB 
819997:	F47E7E  	PEA $7E7E
81999A:	AB      	PLB 
81999B:	AB      	PLB 
81999C:	C220    	REP #$20
81999E:	A09204  	LDY #$0492
8199A1:	A90600  	LDA #$0006
8199A4:	8D0000  	STA $0000
8199A7:	A90E00  	LDA #$000E
8199AA:	8D0200  	STA $0002
8199AD:	A92000  	LDA #$0020
8199B0:	991020  	STA $2010,Y
8199B3:	C8      	INY 
8199B4:	C8      	INY 
8199B5:	CE0200  	DEC $0002
8199B8:	D0F6    	BNE $99B0
8199BA:	98      	TYA 
8199BB:	18      	CLC 
8199BC:	692400  	ADC #$0024
8199BF:	A8      	TAY 
8199C0:	CE0000  	DEC $0000
8199C3:	D0E2    	BNE $99A7
8199C5:	E220    	SEP #$20
8199C7:	A903    	LDA #$03
8199C9:	8D4D00  	STA $004D
8199CC:	AB      	PLB 
8199CD:	60      	RTS

8199DB:	A900    	LDA #$00
8199DD:	EB      	XBA 
8199DE:	BD0200  	LDA $0002,x
8199E1:	0A      	ASL
8199E2:	AA      	TAX 
8199E3:	7CE699  	JMP ($99E6,x)
8199E6:
	dw $99F2, $9A35, $9A4D, $9A4E
	dw $9A85, $9A98
	
8199F2:	AE0007  	LDX $0700
8199F5:	9E0500  	STZ $0005,x
8199F8:	C220    	REP #$20
8199FA:	A9FF17  	LDA #$17FF
8199FD:	9D0300  	STA $0003,x
819A00:	A90001  	LDA #$0100
819A03:	9D0700  	STA $0007,x
819A06:	A91E01  	LDA #$011E
819A09:	9D0D00  	STA $000D,x
819A0C:	A9A400  	LDA #$00A4
819A0F:	9D1000  	STA $0010,x
819A12:	A04497  	LDY #$9744
819A15:	ADD906  	LDA $06D9
819A18:	29FF00  	AND #$00FF
819A1B:	F003    	BEQ $9A20
819A1D:	A04797  	LDY #$9747
819A20:	98      	TYA 
819A21:	9D1200  	STA $0012,x
819A24:	E220    	SEP #$20
819A26:	A901    	LDA #$01
819A28:	9D0200  	STA $0002,x
819A2B:	ADD906  	LDA $06D9
819A2E:	D005    	BNE $9A35
819A30:	A9FF    	LDA #$FF
819A32:	20F79D  	JSR $9DF7
819A35:	AE0007  	LDX $0700
819A38:	BD0300  	LDA $0003,x
819A3B:	38      	SEC 
819A3C:	E904    	SBC #$04
819A3E:	C997    	CMP #$97
819A40:	9005    	BCC $9A47
819A42:	9D0300  	STA $0003,x
819A45:	8005    	BRA $9A4C
819A47:	A902    	LDA #$02
819A49:	9D0200  	STA $0002,x
819A4C:	60      	RTS
 
819A4D:	60      	RTS
 
819A4E:	AE0007  	LDX $0700
819A51:	AC4E00  	LDY $004E
819A54:	C00007  	CPY #$0700
819A57:	F02B    	BEQ $9A84
819A59:	C220    	REP #$20
819A5B:	A94497  	LDA #$9744
819A5E:	9D1200  	STA $0012,x
819A61:	A90002  	LDA #$0200
819A64:	9D0900  	STA $0009,x
819A67:	A90009  	LDA #$0900
819A6A:	9D0B00  	STA $000B,x
819A6D:	A9FE99  	LDA #$99FE
819A70:	9D1400  	STA $0014,x
819A73:	E220    	SEP #$20
819A75:	9E0500  	STZ $0005,x
819A78:	AF293B7E	LDA $7E3B29
819A7C:	20F79D  	JSR $9DF7
819A7F:	A904    	LDA #$04
819A81:	9D0200  	STA $0002,x
819A84:	60      	RTS
 
819A85:	AE0007  	LDX $0700
819A88:	20538B  	JSR $8B53
819A8B:	BD0B00  	LDA $000B,x
819A8E:	C908    	CMP #$08
819A90:	9005    	BCC $9A97
819A92:	A905    	LDA #$05
819A94:	9D0200  	STA $0002,x
819A97:	60      	RTS
 
819A98:	60      	RTS

819A99:	A900    	LDA #$00
819A9B:	EB      	XBA 
819A9C:	BD0200  	LDA $0002,x
819A9F:	0A      	ASL
819AA0:	AA      	TAX 
819AA1:	7CA49A  	JMP ($9AA4,x)
819AA4:
	dw $9AAA, $9AF0, $9C0A

819AAA:	AE0007  	LDX $0700
819AAD:	9E0500  	STZ $0005,x
819AB0:	A950    	LDA #$50
819AB2:	9D0300  	STA $0003,x
819AB5:	ADD906  	LDA $06D9
819AB8:	D004    	BNE $9ABE
819ABA:	A997    	LDA #$97
819ABC:	8002    	BRA $9AC0
819ABE:	A977    	LDA #$77
819AC0:	9D0400  	STA $0004,x
819AC3:	C220    	REP #$20
819AC5:	A90001  	LDA #$0100
819AC8:	9D0700  	STA $0007,x
819ACB:	A91600  	LDA #$0016
819ACE:	9D0D00  	STA $000D,x
819AD1:	A91C01  	LDA #$011C
819AD4:	9D1000  	STA $0010,x
819AD7:	A90C99  	LDA #$990C
819ADA:	9D1200  	STA $0012,x
819ADD:	E220    	SEP #$20
819ADF:	A900    	LDA #$00
819AE1:	8F52347E	STA $7E3452
819AE5:	9C2400  	STZ $0024
819AE8:	9C2500  	STZ $0025
819AEB:	A901    	LDA #$01
819AED:	9D0200  	STA $0002,x
819AF0:	AE0007  	LDX $0700
819AF3:	AD2500  	LDA $0025
819AF6:	2980    	AND #$80
819AF8:	F028    	BEQ $9B22
819AFA:	9C2500  	STZ $0025
819AFD:	ADD906  	LDA $06D9
819B00:	D007    	BNE $9B09
819B02:	ADDA06  	LDA $06DA
819B05:	D01B    	BNE $9B22
819B07:	800C    	BRA $9B15
819B09:	ADA210  	LDA $10A2
819B0C:	C902    	CMP #$02
819B0E:	B012    	BCS $9B22
819B10:	A902    	LDA #$02
819B12:	8DA210  	STA $10A2
819B15:	A902    	LDA #$02
819B17:	9D0200  	STA $0002,x
819B1A:	A901    	LDA #$01
819B1C:	8DB907  	STA $07B9
819B1F:	4C099C  	JMP $9C09

819B22:	ADB907  	LDA $07B9
819B25:	F003    	BEQ $9B2A
819B27:	4C099C  	JMP $9C09
819B2A:	AD2400  	LDA $0024
819B2D:	2980    	AND #$80
819B2F:	8D0000  	STA $0000
819B32:	AD2500  	LDA $0025
819B35:	2910    	AND #$10
819B37:	0D0000  	ORA $0000
819B3A:	F027    	BEQ $9B63
819B3C:	ADD906  	LDA $06D9
819B3F:	C901    	CMP #$01
819B41:	D00E    	BNE $9B51
819B43:	A0DF34  	LDY #$34DF
819B46:	20A0A1  	JSR $A1A0
819B49:	B006    	BCS $9B51
819B4B:	A909    	LDA #$09
819B4D:	8F52347E	STA $7E3452
819B51:	A903    	LDA #$03
819B53:	8D4210  	STA $1042
819B56:	A902    	LDA #$02
819B58:	9D0200  	STA $0002,x
819B5B:	A900    	LDA #$00
819B5D:	208496  	JSR $9684
819B60:	4C099C  	JMP $9C09
819B63:	AD2300  	LDA $0023
819B66:	290F    	AND #$0F
819B68:	D003    	BNE $9B6D
819B6A:	4C099C  	JMP $9C09
819B6D:	8D0000  	STA $0000
819B70:	ADD906  	LDA $06D9
819B73:	F04C    	BEQ $9BC1
819B75:	AD0000  	LDA $0000
819B78:	2908    	AND #$08
819B7A:	F020    	BEQ $9B9C
819B7C:	BD0400  	LDA $0004,x
819B7F:	38      	SEC 
819B80:	E920    	SBC #$20
819B82:	C977    	CMP #$77
819B84:	903B    	BCC $9BC1
819B86:	9D0400  	STA $0004,x
819B89:	AF52347E	LDA $7E3452
819B8D:	38      	SEC 
819B8E:	E903    	SBC #$03
819B90:	8F52347E	STA $7E3452
819B94:	A904    	LDA #$04
819B96:	22CB8382	JSR $8283CB
819B9A:	8025    	BRA $9BC1
819B9C:	AD0000  	LDA $0000
819B9F:	2904    	AND #$04
819BA1:	F01E    	BEQ $9BC1
819BA3:	BD0400  	LDA $0004,x
819BA6:	18      	CLC 
819BA7:	6920    	ADC #$20
819BA9:	C9B8    	CMP #$B8
819BAB:	B014    	BCS $9BC1
819BAD:	9D0400  	STA $0004,x
819BB0:	AF52347E	LDA $7E3452
819BB4:	18      	CLC 
819BB5:	6903    	ADC #$03
819BB7:	8F52347E	STA $7E3452
819BBB:	A904    	LDA #$04
819BBD:	22CB8382	JSR $8283CB
819BC1:	AD0000  	LDA $0000
819BC4:	2902    	AND #$02
819BC6:	F01E    	BEQ $9BE6
819BC8:	BD0300  	LDA $0003,x
819BCB:	38      	SEC 
819BCC:	E920    	SBC #$20
819BCE:	C950    	CMP #$50
819BD0:	9037    	BCC $9C09
819BD2:	9D0300  	STA $0003,x
819BD5:	AF52347E	LDA $7E3452
819BD9:	3A      	DEC A
819BDA:	8F52347E	STA $7E3452
819BDE:	A904    	LDA #$04
819BE0:	22CB8382	JSR $8283CB
819BE4:	8023    	BRA $9C09
819BE6:	AD0000  	LDA $0000
819BE9:	2901    	AND #$01
819BEB:	F01C    	BEQ $9C09
819BED:	BD0300  	LDA $0003,x
819BF0:	18      	CLC 
819BF1:	6920    	ADC #$20
819BF3:	C991    	CMP #$91
819BF5:	B012    	BCS $9C09
819BF7:	9D0300  	STA $0003,x
819BFA:	AF52347E	LDA $7E3452
819BFE:	1A      	INC A
819BFF:	8F52347E	STA $7E3452
819C03:	A904    	LDA #$04
819C05:	22CB8382	JSR $8283CB
819C09:	60      	RTS
 
819C0A:	60      	RTS

819C0B:	A900    	LDA #$00
819C0D:	EB      	XBA 
819C0E:	BD0200  	LDA $0002,x
819C11:	0A      	ASL
819C12:	AA      	TAX 
819C13:	7C169C  	JMP ($9C16,x)
819C16:
	dw $9C1C, $9C62, $9D67

819C1C:	AE0007  	LDX $0700
819C1F:	9E0500  	STZ $0005,x
819C22:	A990    	LDA #$90
819C24:	9D0300  	STA $0003,x
819C27:	ADD906  	LDA $06D9
819C2A:	D004    	BNE $9C30
819C2C:	A997    	LDA #$97
819C2E:	8002    	BRA $9C32
819C30:	A977    	LDA #$77
819C32:	9D0400  	STA $0004,x
819C35:	C220    	REP #$20
819C37:	A90001  	LDA #$0100
819C3A:	9D0700  	STA $0007,x
819C3D:	A90B01  	LDA #$010B
819C40:	9D0D00  	STA $000D,x
819C43:	A93001  	LDA #$0130
819C46:	9D1000  	STA $0010,x
819C49:	A91299  	LDA #$9912
819C4C:	9D1200  	STA $0012,x
819C4F:	E220    	SEP #$20
819C51:	A902    	LDA #$02
819C53:	8F293B7E	STA $7E3B29
819C57:	9C3000  	STZ $0030
819C5A:	9C3100  	STZ $0031
819C5D:	A901    	LDA #$01
819C5F:	9D0200  	STA $0002,x

819C62:	AE0007  	LDX $0700
819C65:	AD3100  	LDA $0031
819C68:	2980    	AND #$80
819C6A:	F01A    	BEQ $9C86
819C6C:	9C3100  	STZ $0031
819C6F:	AD8210  	LDA $1082
819C72:	C902    	CMP #$02
819C74:	B010    	BCS $9C86
819C76:	A902    	LDA #$02
819C78:	8D8210  	STA $1082
819C7B:	9D0200  	STA $0002,x
819C7E:	A901    	LDA #$01
819C80:	8DB907  	STA $07B9
819C83:	4C669D  	JMP $9D66
819C86:	ADB907  	LDA $07B9
819C89:	F003    	BEQ $9C8E
819C8B:	4C669D  	JMP $9D66
819C8E:	AD3000  	LDA $0030
819C91:	2980    	AND #$80
819C93:	8D0000  	STA $0000
819C96:	AD3100  	LDA $0031
819C99:	2910    	AND #$10
819C9B:	0D0000  	ORA $0000
819C9E:	F020    	BEQ $9CC0
819CA0:	A0B63B  	LDY #$3BB6
819CA3:	20A0A1  	JSR $A1A0
819CA6:	B006    	BCS $9CAE
819CA8:	A909    	LDA #$09
819CAA:	8F293B7E	STA $7E3B29
819CAE:	A903    	LDA #$03
819CB0:	8D6210  	STA $1062
819CB3:	A902    	LDA #$02
819CB5:	9D0200  	STA $0002,x
819CB8:	A901    	LDA #$01
819CBA:	208496  	JSR $9684
819CBD:	4C669D  	JMP $9D66
819CC0:	AD2F00  	LDA $002F
819CC3:	290F    	AND #$0F
819CC5:	D003    	BNE $9CCA
819CC7:	4C669D  	JMP $9D66
819CCA:	8D0000  	STA $0000
819CCD:	ADD906  	LDA $06D9
819CD0:	F04C    	BEQ $9D1E
819CD2:	AD0000  	LDA $0000
819CD5:	2908    	AND #$08
819CD7:	F020    	BEQ $9CF9
819CD9:	BD0400  	LDA $0004,x
819CDC:	38      	SEC 
819CDD:	E920    	SBC #$20
819CDF:	C977    	CMP #$77
819CE1:	903B    	BCC $9D1E
819CE3:	9D0400  	STA $0004,x
819CE6:	AF293B7E	LDA $7E3B29
819CEA:	38      	SEC 
819CEB:	E903    	SBC #$03
819CED:	8F293B7E	STA $7E3B29
819CF1:	A904    	LDA #$04
819CF3:	22CB8382	JSR $8283CB
819CF7:	8025    	BRA $9D1E
819CF9:	AD0000  	LDA $0000
819CFC:	2904    	AND #$04
819CFE:	F01E    	BEQ $9D1E
819D00:	BD0400  	LDA $0004,x
819D03:	18      	CLC 
819D04:	6920    	ADC #$20
819D06:	C9B8    	CMP #$B8
819D08:	B014    	BCS $9D1E
819D0A:	9D0400  	STA $0004,x
819D0D:	AF293B7E	LDA $7E3B29
819D11:	18      	CLC 
819D12:	6903    	ADC #$03
819D14:	8F293B7E	STA $7E3B29
819D18:	A904    	LDA #$04
819D1A:	22CB8382	JSR $8283CB
819D1E:	AD0000  	LDA $0000
819D21:	2902    	AND #$02
819D23:	F01E    	BEQ $9D43
819D25:	BD0300  	LDA $0003,x
819D28:	38      	SEC 
819D29:	E920    	SBC #$20
819D2B:	C950    	CMP #$50
819D2D:	9037    	BCC $9D66
819D2F:	9D0300  	STA $0003,x
819D32:	AF293B7E	LDA $7E3B29
819D36:	3A      	DEC A
819D37:	8F293B7E	STA $7E3B29
819D3B:	A904    	LDA #$04
819D3D:	22CB8382	JSR $8283CB
819D41:	8023    	BRA $9D66
819D43:	AD0000  	LDA $0000
819D46:	2901    	AND #$01
819D48:	F01C    	BEQ $9D66
819D4A:	BD0300  	LDA $0003,x
819D4D:	18      	CLC 
819D4E:	6920    	ADC #$20
819D50:	C991    	CMP #$91
819D52:	B012    	BCS $9D66
819D54:	9D0300  	STA $0003,x
819D57:	AF293B7E	LDA $7E3B29
819D5B:	1A      	INC A
819D5C:	8F293B7E	STA $7E3B29
819D60:	A904    	LDA #$04
819D62:	22CB8382	JSR $8283CB
819D66:	60      	RTS

819D67:	60      	RTS
 
819D68:	8B      	PHB 
819D69:	DA      	PHX 
819D6A:	48      	PHA 
819D6B:	C220    	REP #$20
819D6D:	29FF00  	AND #$00FF
819D70:	8D0000  	STA $0000
819D73:	0A      	ASL
819D74:	18      	CLC 
819D75:	6D0000  	ADC $0000
819D78:	AA      	TAX 
819D79:	4B      	PHK 
819D7A:	AB      	PLB 
819D7B:	BDD69D  	LDA $9DD6,x
819D7E:	8DDD06  	STA $06DD
819D81:	E220    	SEP #$20
819D83:	BDD89D  	LDA $9DD8,x
819D86:	8DDF06  	STA $06DF
819D89:	A20080  	LDX #$8000
819D8C:	A97E    	LDA #$7E
819D8E:	8EE006  	STX $06E0
819D91:	8DE206  	STA $06E2
819D94:	22F68182	JSR $8281F6
819D98:	A20007  	LDX #$0700
819D9B:	8E4E00  	STX $004E
819D9E:	A20064  	LDX #$6400
819DA1:	A00080  	LDY #$8000
819DA4:	A97E    	LDA #$7E
819DA6:	8E5000  	STX $0050
819DA9:	8C5200  	STY $0052
819DAC:	8D5400  	STA $0054
819DAF:	A901    	LDA #$01
819DB1:	8D4200  	STA $0042
819DB4:	68      	PLA 
819DB5:	8F52347E	STA $7E3452
819DB9:	C220    	REP #$20
819DBB:	29FF00  	AND #$00FF
819DBE:	0A      	ASL
819DBF:	0A      	ASL
819DC0:	0A      	ASL
819DC1:	0A      	ASL
819DC2:	0A      	ASL
819DC3:	18      	CLC 
819DC4:	698895  	ADC #$9588
819DC7:	AA      	TAX 
819DC8:	A08E01  	LDY #$018E
819DCB:	A91F00  	LDA #$001F
819DCE:	540000  	MVN $00,$00
819DD1:	E220    	SEP #$20
819DD3:	FA      	PLX 
819DD4:	AB      	PLB 
819DD5:	60      	RTS

819DF7:	8B      	PHB 
819DF8:	DA      	PHX 
819DF9:	C9FF    	CMP #$FF
819DFB:	D027    	BNE $9E24
819DFD:	ADDA06  	LDA $06DA
819E00:	C902    	CMP #$02
819E02:	B01F    	BCS $9E23
819E04:	C220    	REP #$20
819E06:	AF52347E	LDA $7E3452
819E0A:	29FF00  	AND #$00FF
819E0D:	0A      	ASL
819E0E:	AA      	TAX 
819E0F:	4B      	PHK 
819E10:	AB      	PLB 
819E11:	ADDA06  	LDA $06DA
819E14:	29FF00  	AND #$00FF
819E17:	18      	CLC 
819E18:	7D909E  	ADC $9E90,x
819E1B:	AA      	TAX 
819E1C:	E220    	SEP #$20
819E1E:	BD0000  	LDA $0000,x
819E21:	8001    	BRA $9E24
819E23:	1A      	INC A
819E24:	48      	PHA 
819E25:	C220    	REP #$20
819E27:	29FF00  	AND #$00FF
819E2A:	8D0000  	STA $0000
819E2D:	0A      	ASL
819E2E:	18      	CLC 
819E2F:	6D0000  	ADC $0000
819E32:	AA      	TAX 
819E33:	4B      	PHK 
819E34:	AB      	PLB 
819E35:	BDD69D  	LDA $9DD6,x
819E38:	8DDD06  	STA $06DD
819E3B:	E220    	SEP #$20
819E3D:	BDD89D  	LDA $9DD8,x
819E40:	8DDF06  	STA $06DF
819E43:	A20088  	LDX #$8800
819E46:	A97E    	LDA #$7E
819E48:	8EE006  	STX $06E0
819E4B:	8DE206  	STA $06E2
819E4E:	22F68182	JSR $8281F6
819E52:	A20007  	LDX #$0700
819E55:	8E5600  	STX $0056
819E58:	A20068  	LDX #$6800
819E5B:	A00088  	LDY #$8800
819E5E:	A97E    	LDA #$7E
819E60:	8E5800  	STX $0058
819E63:	8C5A00  	STY $005A
819E66:	8D5C00  	STA $005C
819E69:	A901    	LDA #$01
819E6B:	8D4200  	STA $0042
819E6E:	68      	PLA 
819E6F:	8F293B7E	STA $7E3B29
819E73:	C220    	REP #$20
819E75:	29FF00  	AND #$00FF
819E78:	0A      	ASL
819E79:	0A      	ASL
819E7A:	0A      	ASL
819E7B:	0A      	ASL
819E7C:	0A      	ASL
819E7D:	18      	CLC 
819E7E:	698895  	ADC #$9588
819E81:	AA      	TAX 
819E82:	A0AE01  	LDY #$01AE
819E85:	A91F00  	LDA #$001F
819E88:	540000  	MVN $00,$00
819E8B:	E220    	SEP #$20
819E8D:	FA      	PLX 
819E8E:	AB      	PLB 
819E8F:	60      	RTS

819E9C:	8B      	PHB 
819E9D:	DA      	PHX 
819E9E:	F47E7E  	PEA $7E7E
819EA1:	AB      	PLB 
819EA2:	AB      	PLB 
819EA3:	A2F000  	LDX #$00F0
819EA6:	A09801  	LDY #$0198
819EA9:	C220    	REP #$20
819EAB:	A90800  	LDA #$0008
819EAE:	8D0000  	STA $0000
819EB1:	8A      	TXA 
819EB2:	991020  	STA $2010,Y
819EB5:	18      	CLC 
819EB6:	690800  	ADC #$0008
819EB9:	99D020  	STA $20D0,Y
819EBC:	18      	CLC 
819EBD:	690800  	ADC #$0008
819EC0:	995020  	STA $2050,Y
819EC3:	18      	CLC 
819EC4:	690800  	ADC #$0008
819EC7:	991021  	STA $2110,Y
819ECA:	18      	CLC 
819ECB:	690800  	ADC #$0008
819ECE:	999020  	STA $2090,Y
819ED1:	18      	CLC 
819ED2:	690800  	ADC #$0008
819ED5:	995021  	STA $2150,Y
819ED8:	E8      	INX 
819ED9:	C8      	INY 
819EDA:	C8      	INY 
819EDB:	CE0000  	DEC $0000
819EDE:	D0D1    	BNE $9EB1
819EE0:	E220    	SEP #$20
819EE2:	FA      	PLX 
819EE3:	AB      	PLB 
819EE4:	60      	RTS

######TAISEN AITE SERIFU#########
819EE5:	8B      	PHB 
819EE6:	4B      	PHK 
819EE7:	AB      	PLB 
819EE8:	DA      	PHX 
819EE9:	C220    	REP #$20
819EEB:	AF293B7E	LDA $7E3B29		aite
819EEF:	29FF00  	AND #$00FF
819EF2:	0A      	ASL
819EF3:	AA      	TAX 
819EF4:	BD039F  	LDA $9F03,x	serifu ptr
819EF7:	AA      	TAX 
819EF8:	E220    	SEP #$20
819EFA:	A03424  	LDY #$2434
819EFD:	2039A0  	JSR $A039
819F00:	FA      	PLX 
819F01:	AB      	PLB 
819F02:	60      	RTS

81A039:	8B      	PHB 
81A03A:	C220    	REP #$20
81A03C:	8C0000  	STY $0000
81A03F:	4B      	PHK 
81A040:	AB      	PLB 
81A041:	BD0000  	LDA $0000,x
81A044:	E8      	INX 
81A045:	29FF00  	AND #$00FF
81A048:	C9FF00  	CMP #$00FF
81A04B:	D003    	BNE $A050
81A04D:	4C99A0  	JMP $A099
81A050:	C9FE00  	CMP #$00FE
81A053:	D00D    	BNE $A062
81A055:	AD0000  	LDA $0000
81A058:	18      	CLC 
81A059:	698000  	ADC #$0080
81A05C:	8D0000  	STA $0000
81A05F:	A8      	TAY 
81A060:	80DD    	BRA $A03F
81A062:	090002  	ORA #$0200
81A065:	F47E7E  	PEA $7E7E
81A068:	AB      	PLB 
81A069:	AB      	PLB 
81A06A:	994000  	STA $0040,Y
81A06D:	4B      	PHK 
81A06E:	AB      	PLB 
81A06F:	BD0000  	LDA $0000,x
81A072:	29FF00  	AND #$00FF
81A075:	C98700  	CMP #$0087
81A078:	F00F    	BEQ $A089
81A07A:	C98800  	CMP #$0088
81A07D:	F00A    	BEQ $A089
81A07F:	C9C700  	CMP #$00C7
81A082:	F005    	BEQ $A089
81A084:	C9C800  	CMP #$00C8
81A087:	D00C    	BNE $A095
81A089:	090002  	ORA #$0200
81A08C:	F47E7E  	PEA $7E7E
81A08F:	AB      	PLB 
81A090:	AB      	PLB 
81A091:	990000  	STA $0000,Y
81A094:	E8      	INX 
81A095:	C8      	INY 
81A096:	C8      	INY 
81A097:	80A6    	BRA $A03F
81A099:	E220    	SEP #$20
81A09B:	AB      	PLB 
81A09C:	60      	RTS

81A09D:	8B      	PHB 
81A09E:	F40000  	PEA $0000
81A0A1:	AB      	PLB 
81A0A2:	AB      	PLB 
81A0A3:	A20000  	LDX #$0000
81A0A6:	A00000  	LDY #$0000
81A0A9:	A901    	LDA #$01
81A0AB:	990008  	STA $0800,Y
81A0AE:	BDEA93  	LDA $93EA,x
81A0B1:	C220    	REP #$20
81A0B3:	29FF00  	AND #$00FF
81A0B6:	990108  	STA $0801,Y
81A0B9:	E220    	SEP #$20
81A0BB:	E8      	INX 
81A0BC:	C8      	INY 
81A0BD:	C8      	INY 
81A0BE:	C8      	INY 
81A0BF:	E05C00  	CPX #$005C
81A0C2:	90E5    	BCC $A0A9
81A0C4:	C220    	REP #$20
81A0C6:	A20008  	LDX #$0800
81A0C9:	A01409  	LDY #$0914
81A0CC:	A98B01  	LDA #$018B
81A0CF:	540000  	MVN $00,$00
81A0D2:	E220    	SEP #$20
81A0D4:	9CA00A  	STZ $0AA0
81A0D7:	F40043  	PEA $4300
81A0DA:	2B      	PLD 
81A0DB:	9C0C42  	STZ $420C
81A0DE:	A20210  	LDX #$1002
81A0E1:	8600    	STX $00
81A0E3:	A20008  	LDX #$0800
81A0E6:	8602    	STX $02
81A0E8:	6404    	STZ $04
81A0EA:	6407    	STZ $07
81A0EC:	A20032  	LDX #$3200
81A0EF:	8610    	STX $10
81A0F1:	A2A993  	LDX #$93A9
81A0F4:	8612    	STX $12
81A0F6:	6414    	STZ $14
81A0F8:	6417    	STZ $17
81A0FA:	A903    	LDA #$03
81A0FC:	8D4D00  	STA $004D
81A0FF:	AB      	PLB 
81A100:	60      	RTS

81A101:	8B      	PHB 
81A102:	F40000  	PEA $0000
81A105:	AB      	PLB 
81A106:	AB      	PLB 
81A107:	A20000  	LDX #$0000
81A10A:	BD0108  	LDA $0801,x
81A10D:	1A      	INC A
81A10E:	293F    	AND #$3F
81A110:	9D0108  	STA $0801,x
81A113:	E8      	INX 
81A114:	E8      	INX 
81A115:	E8      	INX 
81A116:	E01401  	CPX #$0114
81A119:	90EF    	BCC $A10A
81A11B:	C220    	REP #$20
81A11D:	A20008  	LDX #$0800
81A120:	A01409  	LDY #$0914
81A123:	A98B01  	LDA #$018B
81A126:	540000  	MVN $00,$00
81A129:	E220    	SEP #$20
81A12B:	AB      	PLB 
81A12C:	60      	RTS

#######TAISEN BUFFER INIT#######
81A12D:	8B      	PHB 
81A12E:	F47E7E  	PEA $7E7E
81A131:	AB      	PLB 
81A132:	AB      	PLB 
81A133:	A20700  	LDX #$0007
81A136:	9EDF34  	STZ $34DF,x
81A139:	9EB63B  	STZ $3BB6,x
81A13C:	CA      	DEX 
81A13D:	10F7    	BPL $A136
81A13F:	9C2400  	STZ $0024
81A142:	9C2500  	STZ $0025
81A145:	9C3000  	STZ $0030
81A148:	9C3100  	STZ $0031
81A14B:	AB      	PLB 
81A14C:	60      	RTS

81A14D:	8B      	PHB 
81A14E:	F47E7E  	PEA $7E7E
81A151:	AB      	PLB 
81A152:	AB      	PLB 
81A153:	A22000  	LDX #$0020
81A156:	A0DF34  	LDY #$34DF
81A159:	2067A1  	JSR $A167
81A15C:	A22C00  	LDX #$002C
81A15F:	A0B63B  	LDY #$3BB6
81A162:	2067A1  	JSR $A167
81A165:	AB      	PLB 
81A166:	60	RTS
 		
81A167:	BD0500  	LDA $0005,x
81A16A:	290F    	AND #$0F
81A16C:	F01D    	BEQ $A18B
81A16E:	8D0000  	STA $0000
81A171:	BD0500  	LDA $0005,x
81A174:	29F0    	AND #$F0
81A176:	9D0500  	STA $0005,x
81A179:	BD0000  	LDA $0000,x
81A17C:	2930	AND #$30
81A17E:	C930    	CMP #$30
81A180:	D009    	BNE $A18B
81A182:	208CA1  	JSR $A18C
81A185:	AD0000  	LDA $0000
81A188:	990700	STA $0007,Y
81A18B:	60	RTS
 		
81A18C:	5A      	PHY 
81A18D:	A907    	LDA #$07
81A18F:	8D0100  	STA $0001
81A192:	B90100  	LDA $0001,Y
81A195:	990000	STA $0000,Y
81A198:	C8      	INY 
81A199:	CE0100  	DEC $0001
81A19C:	D0F4    	BNE $A192
81A19E:	7A      	PLY 
81A19F:	60	RTS

81A1A0:	8B      	PHB 
81A1A1:	DA      	PHX 
81A1A2:	F47E7E  	PEA $7E7E
81A1A5:	AB      	PLB 
81A1A6:	AB      	PLB 
81A1A7:	A2109A  	LDX #$9A10
81A1AA:	A908    	LDA #$08
81A1AC:	8D0000  	STA $0000
81A1AF:	B90000  	LDA $0000,Y
81A1B2:	8D0100  	STA $0001
81A1B5:	8B      	PHB 
81A1B6:	F40000  	PEA $0000
81A1B9:	AB      	PLB 
81A1BA:	AB      	PLB 
81A1BB:	BD0000  	LDA $0000,x
81A1BE:	AB      	PLB 
81A1BF:	CD0100  	CMP $0001
81A1C2:	D00A    	BNE $A1CE
81A1C4:	E8      	INX 
81A1C5:	C8      	INY 
81A1C6:	CE0000  	DEC $0000
81A1C9:	D0E4    	BNE $A1AF
81A1CB:	18      	CLC 
81A1CC:	8001    	BRA $A1CF
81A1CE:	38      	SEC 
81A1CF:	FA      	PLX 
81A1D0:	AB      	PLB 
81A1D1:	60      	RTS

############TAISEN MAKE#########
81ACBF:	8B      	PHB 
81ACC0:	A980    	LDA #$80
81ACC2:	8D0021  	STA $2100
81ACC5:	A26A93  	LDX #$936A
81ACC8:	22318200	JSR $008231	write PPU
81ACCC:	226A8200	JSR $00826A	init OAM
81ACD0:	20D392  	JSR $92D3	dma bg 1, bg2 set
81ACD3:	2006AE  	JSR $AE06	dma suuji
81ACD6:	206693  	JSR $9366	dma obj
81ACD9:	20AC93  	JSR $93AC	write bg1 map buffer
81ACDC:	2048AE  	JSR $AE48	display text
81ACDF:	200B96  	JSR $960B
81ACE2:	A24694  	LDX #$9446
81ACE5:	22928200	JSR $008292
81ACE9:	20A695  	JSR $95A6
81ACEC:	200AAF  	JSR $AF0A
81ACEF:	209DA0  	JSR $A09D
81ACF2:	A909    	LDA #$09
81ACF4:	202DB2  	JSR $B22D
81ACF7:	223D8100	JSR $00813D
81ACFB:	A9F6    	LDA #$F6
81ACFD:	22B88382	JSR $8283B8
81AD01:	A94C    	LDA #$4C
81AD03:	227B8382	JSR $82837B
81AD07:	A908    	LDA #$08
81AD09:	22648382	JSR $828364
81AD0D:	A900    	LDA #$00
81AD0F:	8D0021  	STA $2100
81AD12:	9CF00F  	STZ $0FF0
81AD15:	9CF10F  	STZ $0FF1
81AD18:	9C4100  	STZ $0041
81AD1B:	22098382	JSR $828309
81AD1F:	AD4100  	LDA $0041
81AD22:	F0F7    	BEQ $AD1B
81AD24:	20A695  	JSR $95A6
81AD27:	2001A1  	JSR $A101
81AD2A:	20E888  	JSR $88E8
81AD2D:	CEF00F  	DEC $0FF0
81AD30:	10E6    	BPL $AD18
81AD32:	A901    	LDA #$01
81AD34:	8DF00F  	STA $0FF0
81AD37:	ADF10F  	LDA $0FF1
81AD3A:	1A      	INC A
81AD3B:	C910    	CMP #$10
81AD3D:	F009    	BEQ $AD48
81AD3F:	8DF10F  	STA $0FF1
81AD42:	8F002100	STA $002100
81AD46:	80D0    	BRA $AD18
81AD48:	A960    	LDA #$60
81AD4A:	8DF00F  	STA $0FF0
81AD4D:	A909    	LDA #$09
81AD4F:	8DF10F  	STA $0FF1
81AD52:	9C4100  	STZ $0041
81AD55:	22098382	JSR $828309
81AD59:	AD4100  	LDA $0041
81AD5C:	F0F7    	BEQ $AD55
81AD5E:	20A695  	JSR $95A6
81AD61:	2001A1  	JSR $A101
81AD64:	20E888  	JSR $88E8
81AD67:	229D8482	JSR $82849D
81AD6B:	2074B2  	JSR $B274
81AD6E:	B028    	BCS $AD98
81AD70:	CEF00F  	DEC $0FF0
81AD73:	10DD    	BPL $AD52
81AD75:	A960    	LDA #$60
81AD77:	8DF00F  	STA $0FF0
81AD7A:	ADF10F  	LDA $0FF1
81AD7D:	3A      	DEC A
81AD7E:	3008    	BMI $AD88
81AD80:	8DF10F  	STA $0FF1
81AD83:	202DB2  	JSR $B22D
81AD86:	80CA    	BRA $AD52
81AD88:	9CF20F  	STZ $0FF2
81AD8B:	A2000F  	LDX #$0F00
81AD8E:	8EF00F  	STX $0FF0
81AD91:	A901    	LDA #$01
81AD93:	8DF30F  	STA $0FF3
81AD96:	8019    	BRA $ADB1
81AD98:	A901    	LDA #$01
81AD9A:	8DF20F  	STA $0FF2
81AD9D:	A2200F  	LDX #$0F20
81ADA0:	8EF00F  	STX $0FF0
81ADA3:	20A4B2  	JSR $B2A4
81ADA6:	AD8807  	LDA $0788
81ADA9:	208496  	JSR $9684
81ADAC:	A920    	LDA #$20
81ADAE:	8DF30F  	STA $0FF3
81ADB1:	9C4100  	STZ $0041
81ADB4:	AD4100  	LDA $0041
81ADB7:	F0FB    	BEQ $ADB4
81ADB9:	20A695  	JSR $95A6
81ADBC:	2001A1  	JSR $A101
81ADBF:	20E888  	JSR $88E8
81ADC2:	CEF30F  	DEC $0FF3
81ADC5:	D006    	BNE $ADCD
81ADC7:	A9F5    	LDA #$F5
81ADC9:	22B88382	JSR $8283B8
81ADCD:	CEF00F  	DEC $0FF0
81ADD0:	10DF    	BPL $ADB1
81ADD2:	A901    	LDA #$01
81ADD4:	8DF00F  	STA $0FF0
81ADD7:	ADF10F  	LDA $0FF1
81ADDA:	3A      	DEC A
81ADDB:	3008    	BMI $ADE5
81ADDD:	8DF10F  	STA $0FF1
81ADE0:	8D0021  	STA $2100
81ADE3:	80CC    	BRA $ADB1
81ADE5:	9C4D00  	STZ $004D
81ADE8:	9C4100  	STZ $0041
81ADEB:	AD4100  	LDA $0041
81ADEE:	F0FB    	BEQ $ADEB
81ADF0:	A9F6    	LDA #$F6
81ADF2:	22B88382	JSR $8283B8
81ADF6:	A980    	LDA #$80
81ADF8:	8D0021  	STA $2100
81ADFB:	9C4100  	STZ $0041
81ADFE:	CEB707  	DEC $07B7
81AE01:	ADF20F  	LDA $0FF2
81AE04:	AB      	PLB 
81AE05:	6B      	RTL
 
#########DMA TAISEN MAKE SUUJI###########
81AE06:	A288F3  	LDX #$F388
81AE09:	A00080  	LDY #$8000
81AE0C:	8EDD06  	STX $06DD
81AE0F:	8CE006  	STY $06E0
81AE12:	A905    	LDA #$05
81AE14:	8DDF06  	STA $06DF
81AE17:	A97E    	LDA #$7E
81AE19:	8DE206  	STA $06E2
81AE1C:	22F68182	JSR $8281F6
81AE20:	F40043  	PEA $4300
81AE23:	2B      	PLD 
81AE24:	A980    	LDA #$80
81AE26:	8D1521  	STA $2115
81AE29:	A20118  	LDX #$1801
81AE2C:	8670    	STX $70
81AE2E:	A20080  	LDX #$8000
81AE31:	A97E    	LDA #$7E
81AE33:	8672    	STX $72
81AE35:	8574    	STA $74
81AE37:	A20010  	LDX #$1000
81AE3A:	8E1621  	STX $2116
81AE3D:	A2000C  	LDX #$0C00
81AE40:	8675    	STX $75
81AE42:	A980    	LDA #$80
81AE44:	8D0B42  	STA $420B
81AE47:	60      	RTS

#######DISPLAY MAKE TEXT#########
81AE48:	8B      	PHB 
81AE49:	F47E7E  	PEA $7E7E
81AE4C:	AB      	PLB 
81AE4D:	AB      	PLB 
81AE4E:	ADD906  	LDA $06D9
81AE51:	F026    	BEQ $AE79
81AE53:	A01A02  	LDY #$021A
81AE56:	AD5534  	LDA $3455	score
81AE59:	20D2AE  	JSR $AED2	write suuji map
81AE5C:	A02202  	LDY #$0222
81AE5F:	AD2C3B  	LDA $3B2C
81AE62:	20D2AE  	JSR $AED2	write suuji map
81AE65:	A24A15  	LDX #$154A
81AE68:	8E2E22  	STX $222E
81AE6B:	E8      	INX 
81AE6C:	8E3022  	STX $2230
81AE6F:	A25A15  	LDX #$155A
81AE72:	8E6E22  	STX $226E
81AE75:	E8      	INX 
81AE76:	8E7022  	STX $2270
81AE79:	A22415  	LDX #$1524
81AE7C:	A0C404  	LDY #$04C4
81AE7F:	AD8807  	LDA $0788
81AE82:	F003    	BEQ $AE87
81AE84:	A0E404  	LDY #$04E4
81AE87:	C220    	REP #$20
81AE89:	A90200  	LDA #$0002
81AE8C:	8D0000  	STA $0000
81AE8F:	A90C00  	LDA #$000C
81AE92:	8D0200  	STA $0002
81AE95:	8A      	TXA 
81AE96:	991020  	STA $2010,Y
81AE99:	C8      	INY 
81AE9A:	C8      	INY 
81AE9B:	1A      	INC A
81AE9C:	CE0200  	DEC $0002
81AE9F:	D0F5    	BNE $AE96
81AEA1:	8A      	TXA 
81AEA2:	18      	CLC 
81AEA3:	691000  	ADC #$0010
81AEA6:	AA      	TAX 
81AEA7:	98      	TYA 
81AEA8:	18      	CLC 
81AEA9:	692800  	ADC #$0028
81AEAC:	A8      	TAY 
81AEAD:	CE0000  	DEC $0000
81AEB0:	D0DD    	BNE $AE8F
81AEB2:	E220    	SEP #$20
81AEB4:	ADD906  	LDA $06D9
81AEB7:	D014    	BNE $AECD
81AEB9:	A2B0B1  	LDX #$B1B0
81AEBC:	A01424  	LDY #$2414
81AEBF:	2039A0  	JSR $A039
81AEC2:	ADB707  	LDA $07B7
81AEC5:	8D6A24  	STA $246A
81AEC8:	A902    	LDA #$02
81AECA:	8D6B24  	STA $246B
81AECD:	203DB0  	JSR $B03D	display serifu
81AED0:	AB      	PLB 
81AED1:	60      	RTS

#####WRITE MAKE SUUJI MAP#######
81AED2:	9C0000  	STZ $0000
81AED5:	38      	SEC 
81AED6:	E90A    	SBC #$0A
81AED8:	9005    	BCC $AEDF
81AEDA:	EE0000  	INC $0000
81AEDD:	80F6    	BRA $AED5
81AEDF:	18      	CLC 
81AEE0:	690A    	ADC #$0A
81AEE2:	C220    	REP #$20
81AEE4:	29FF00  	AND #$00FF
81AEE7:	094015  	ORA #$1540
81AEEA:	991220  	STA $2012,Y
81AEED:	18      	CLC 
81AEEE:	691000  	ADC #$0010
81AEF1:	995220  	STA $2052,Y
81AEF4:	AD0000  	LDA $0000
81AEF7:	29FF00  	AND #$00FF
81AEFA:	094015  	ORA #$1540
81AEFD:	991020  	STA $2010,Y
81AF00:	18      	CLC 
81AF01:	691000  	ADC #$0010
81AF04:	995020  	STA $2050,Y
81AF07:	E220    	SEP #$20
81AF09:	60      	RTS


######DISPLAY TAISEN MAKE TEXT#########
81B03D:	8B      	PHB 
81B03E:	4B      	PHK 
81B03F:	AB      	PLB 
81B040:	C220    	REP #$20
81B042:	AD8807  	LDA $0788
81B045:	29FF00  	AND #$00FF
81B048:	D009    	BNE $B053
81B04A:	A03424  	LDY #$2434
81B04D:	AF293B7E	LDA $7E3B29	teki
81B051:	8007    	BRA $B05A
81B053:	A01424  	LDY #$2414
81B056:	AF52347E	LDA $7E3452	aite
81B05A:	29FF00  	AND #$00FF
81B05D:	0A      	ASL A
81B05E:	AA      	TAX 
81B05F:	BD6AB0  	LDA $B06A,X
81B062:	AA      	TAX 
81B063:	E220    	SEP #$20
81B065:	2039A0  	JSR $A039
81B068:	AB      	PLB 
81B069:	60      	RTS

#######KYARA SENTAKU#########
81B2D3:	ADD906  	LDA $06D9		1p,2p mode
81B2D6:	D007    	BNE $B2DF
81B2D8:	ADDA06  	LDA $06DA	stage
81B2DB:	C902    	CMP #$02
81B2DD:	B003    	BCS $B2E2
81B2DF:	4C06B4  	JMP $B406	1p mode

########CUTSCENE##########
81B2E2:	8B      	PHB 
81B2E3:	A980    	LDA #$80
81B2E5:	8D0021  	STA $2100
81B2E8:	A9F6    	LDA #$F6
81B2EA:	22B88382	JSR $8283B8	sfx
81B2EE:	A21C9D  	LDX #$9D1C
81B2F1:	22318200	JSR $008231	ppu setting
81B2F5:	226A8200	JSR $00826A	init oam tbl
81B2F9:	2007B4  	JSR $B407		dma bg1,2 set
81B2FC:	20C2B4  	JSR $B4C2	dma bg1 map
81B2FF:	207EB5  	JSR $B57E	write color
81B302:	2051B5  	JSR $B551	dma bg2 map
81B305:	20AFB5  	JSR $B5AF	hdma table
81B308:	ADDA06  	LDA $06DA	stage
81B30B:	C908    	CMP #$08
81B30D:	F004    	BEQ $B313
81B30F:	A90A    	LDA #$0A
81B311:	8002    	BRA $B315
81B313:	A90C    	LDA #$0C
81B315:	22648382	JSR $828364		bgm
81B319:	A900    	LDA #$00
81B31B:	8D0021  	STA $2100
81B31E:	9CF00F  	STZ $0FF0
81B321:	9CF10F  	STZ $0FF1
81B324:	9C2008  	STZ $0820
81B327:	9C2108  	STZ $0821
81B32A:	9C2208  	STZ $0822
81B32D:	A901    	LDA #$01
81B32F:	8D2308  	STA $0823
81B332:	A20060  	LDX #$6000
81B335:	8E2408  	STX $0824
81B338:	A902    	LDA #$02
81B33A:	8D4D00  	STA $004D
81B33D:	9CDC06  	STZ $06DC
81B340:	9C4100  	STZ $0041
81B343:	AD4100  	LDA $0041
81B346:	F0FB    	BEQ $B343
81B348:	20A8C1  	JSR $C1A8  stage 8 effect
81B34B:	2051B5  	JSR $B551
81B34E:	A900    	LDA #$00
81B350:	EB      	XBA 
81B351:	ADDC06  	LDA $06DC
81B354:	0A      	ASL
81B355:	AA      	TAX 
81B356:	7C59B3  	JMP ($B359,x)
81B359:
dw $B361, $B38D, $B3CA, $B402

81B361:	2000C1  	JSR $C100	check stage 8
81B364:	CEF00F  	DEC $0FF0
81B367:	1021    	BPL $B38A
81B369:	A901    	LDA #$01
81B36B:	8DF00F  	STA $0FF0
81B36E:	ADF10F  	LDA $0FF1
81B371:	1A      	INC A
81B372:	C910    	CMP #$10
81B374:	F009    	BEQ $B37F
81B376:	8DF10F  	STA $0FF1
81B379:	8F002100	STA $002100
81B37D:	800B    	BRA $B38A
81B37F:	20E4B5  	JSR $B5E4	write text pos
81B382:	A903    	LDA #$03
81B384:	8D4D00  	STA $004D
81B387:	EEDC06  	INC $06DC
81B38A:	4C40B3  	JMP $B340

81B38D:	229D8482	JSR $82849D	pad
81B391:	2000C1  	JSR $C100	check stage 8
81B394:	200DB6  	JSR $B60D	txt shori
81B397:	B01B    	BCS $B3B4
81B399:	22A58382	JSR $8283A5
81B39D:	AD2200  	LDA $0022
81B3A0:	2980    	AND #$80
81B3A2:	F005    	BEQ $B3A9
81B3A4:	A901    	LDA #$01
81B3A6:	8D0808  	STA $0808
81B3A9:	AD2300  	LDA $0023
81B3AC:	2910    	AND #$10
81B3AE:	F017    	BEQ $B3C7
81B3B0:	A900    	LDA #$00
81B3B2:	8002    	BRA $B3B6
81B3B4:	A980    	LDA #$80
81B3B6:	8DF00F  	STA $0FF0
81B3B9:	A90F    	LDA #$0F
81B3BB:	8DF10F  	STA $0FF1
81B3BE:	A9F5    	LDA #$F5
81B3C0:	22B88382	JSR $8283B8
81B3C4:	EEDC06  	INC $06DC
81B3C7:	4C40B3  	JMP $B340

81B3CA:	200DB6  	JSR $B60D
81B3CD:	2000C1  	JSR $C100
81B3D0:	22A58382	JSR $8283A5
81B3D4:	CEF00F  	DEC $0FF0
81B3D7:	1026    	BPL $B3FF
81B3D9:	A902    	LDA #$02
81B3DB:	8DF00F  	STA $0FF0
81B3DE:	ADF10F  	LDA $0FF1
81B3E1:	3A      	DEC A
81B3E2:	3009    	BMI $B3ED
81B3E4:	8DF10F  	STA $0FF1
81B3E7:	8F002100	STA $002100
81B3EB:	8012    	BRA $B3FF
81B3ED:	A9F6    	LDA #$F6
81B3EF:	22B88382	JSR $8283B8
81B3F3:	A980    	LDA #$80
81B3F5:	8F002100	STA $002100
81B3F9:	9C4D00  	STZ $004D
81B3FC:	EEDC06  	INC $06DC
81B3FF:	4C40B3  	JMP $B340

81B402:	9C4100  	STZ $0041
81B405:	AB      	PLB 
81B406:	6B      	RTL

81B407:	8B      	PHB 
81B408:	F40000  	PEA $0000
81B40B:	AB      	PLB 
81B40C:	AB      	PLB 
81B40D:	A20080  	LDX #$8000
81B410:	A91E    	LDA #$1E
81B412:	8EDD06  	STX $06DD
81B415:	8DDF06  	STA $06DF
81B418:	A20080  	LDX #$8000
81B41B:	A97E    	LDA #$7E
81B41D:	8EE006  	STX $06E0
81B420:	8DE206  	STA $06E2
81B423:	22F68182	JSR $8281F6
81B427:	A900    	LDA #$00
81B429:	EB      	XBA 
81B42A:	ADDA06  	LDA $06DA
81B42D:	3A      	DEC A
81B42E:	3A      	DEC A
81B42F:	8D0000  	STA $0000
81B432:	0A      	ASL
81B433:	18      	CLC 
81B434:	6D0000  	ADC $0000
81B437:	A8      	TAY 
81B438:	BE6C9D  	LDX $9D6C,Y
81B43B:	B96E9D  	LDA $9D6E,Y
81B43E:	8EDD06  	STX $06DD
81B441:	8DDF06  	STA $06DF
81B444:	A20088  	LDX #$8800
81B447:	A97E    	LDA #$7E
81B449:	8EE006  	STX $06E0
81B44C:	8DE206  	STA $06E2
81B44F:	22F68182	JSR $8281F6
81B453:	A900    	LDA #$00
81B455:	EB      	XBA 
81B456:	ADDA06  	LDA $06DA
81B459:	3A      	DEC A
81B45A:	3A      	DEC A
81B45B:	8D0000  	STA $0000
81B45E:	0A      	ASL
81B45F:	18      	CLC 
81B460:	6D0000  	ADC $0000
81B463:	A8      	TAY 
81B464:	BE819D  	LDX $9D81,Y
81B467:	B9839D  	LDA $9D83,Y
81B46A:	8EDD06  	STX $06DD
81B46D:	8DDF06  	STA $06DF
81B470:	A200A4  	LDX #$A400
81B473:	A97E    	LDA #$7E
81B475:	8EE006  	STX $06E0
81B478:	8DE206  	STA $06E2
81B47B:	22F68182	JSR $8281F6
81B47F:	A2A989  	LDX #$89A9
81B482:	A905    	LDA #$05
81B484:	8EDD06  	STX $06DD
81B487:	8DDF06  	STA $06DF
81B48A:	A200C0  	LDX #$C000
81B48D:	A97E    	LDA #$7E
81B48F:	8EE006  	STX $06E0
81B492:	8DE206  	STA $06E2
81B495:	22F68182	JSR $8281F6
81B499:	F40043  	PEA $4300
81B49C:	2B      	PLD 
81B49D:	A980    	LDA #$80
81B49F:	8D1521  	STA $2115
81B4A2:	A20118  	LDX #$1801
81B4A5:	8670    	STX $70
81B4A7:	A20080  	LDX #$8000
81B4AA:	A97E    	LDA #$7E
81B4AC:	8672    	STX $72
81B4AE:	8574    	STA $74
81B4B0:	A20000  	LDX #$0000
81B4B3:	8E1621  	STX $2116
81B4B6:	A20060  	LDX #$6000
81B4B9:	8675    	STX $75
81B4BB:	A980    	LDA #$80
81B4BD:	8D0B42  	STA $420B
81B4C0:	AB      	PLB 
81B4C1:	60      	RTS
 
81B4C2:	8B      	PHB 
81B4C3:	C220    	REP #$20
81B4C5:	A20080  	LDX #$8000
81B4C8:	A00180  	LDY #$8001
81B4CB:	A90000  	LDA #$0000
81B4CE:	8F00807E	STA $7E8000
81B4D2:	A9FF07  	LDA #$07FF
81B4D5:	547E7E  	MVN $7E,$7E
81B4D8:	E220    	SEP #$20
81B4DA:	F40000  	PEA $0000
81B4DD:	AB      	PLB 
81B4DE:	AB      	PLB 
81B4DF:	A900    	LDA #$00
81B4E1:	EB      	XBA 
81B4E2:	ADDA06  	LDA $06DA
81B4E5:	3A      	DEC A
81B4E6:	3A      	DEC A
81B4E7:	8D0000  	STA $0000
81B4EA:	0A      	ASL
81B4EB:	18      	CLC 
81B4EC:	6D0000  	ADC $0000
81B4EF:	A8      	TAY 
81B4F0:	BE969D  	LDX $9D96,Y
81B4F3:	E0FFFF  	CPX #$FFFF
81B4F6:	F018    	BEQ $B510
81B4F8:	B9989D  	LDA $9D98,Y
81B4FB:	8EDD06  	STX $06DD
81B4FE:	8DDF06  	STA $06DF
81B501:	A20080  	LDX #$8000
81B504:	A97E    	LDA #$7E
81B506:	8EE006  	STX $06E0
81B509:	8DE206  	STA $06E2
81B50C:	22F68182	JSR $8281F6
81B510:	F40043  	PEA $4300
81B513:	2B      	PLD 
81B514:	A980    	LDA #$80
81B516:	8D1521  	STA $2115
81B519:	A20118  	LDX #$1801
81B51C:	8670    	STX $70
81B51E:	A20080  	LDX #$8000
81B521:	A97E    	LDA #$7E
81B523:	8672    	STX $72
81B525:	8574    	STA $74
81B527:	A20030  	LDX #$3000
81B52A:	8E1621  	STX $2116
81B52D:	A20010  	LDX #$1000
81B530:	8675    	STX $75
81B532:	A980    	LDA #$80
81B534:	8D0B42  	STA $420B
81B537:	A20585  	LDX #$8505
81B53A:	A91E    	LDA #$1E
81B53C:	8EDD06  	STX $06DD
81B53F:	8DDF06  	STA $06DF
81B542:	A20010  	LDX #$1000
81B545:	8EE006  	STX $06E0
81B548:	9CE206  	STZ $06E2
81B54B:	22F68182	JSR $8281F6
81B54F:	AB      	PLB 
81B550:	60      	RTS
 
81B551:	8B      	PHB 
81B552:	F40000  	PEA $0000
81B555:	AB      	PLB 
81B556:	AB      	PLB 
81B557:	F40043  	PEA $4300
81B55A:	2B      	PLD 
81B55B:	A980    	LDA #$80
81B55D:	8D1521  	STA $2115
81B560:	A20118  	LDX #$1801
81B563:	8670    	STX $70
81B565:	A20010  	LDX #$1000
81B568:	8672    	STX $72
81B56A:	6474    	STZ $74
81B56C:	A20034  	LDX #$3400
81B56F:	8E1621  	STX $2116
81B572:	A20008  	LDX #$0800
81B575:	8675    	STX $75
81B577:	A980    	LDA #$80
81B579:	8D0B42  	STA $420B
81B57C:	AB      	PLB 
81B57D:	60      	RTS
 
81B57E:	8B      	PHB 
81B57F:	F40000  	PEA $0000
81B582:	AB      	PLB 
81B583:	AB      	PLB 
81B584:	C220    	REP #$20
81B586:	A2AB9D  	LDX #$9DAB
81B589:	A08E00  	LDY #$008E
81B58C:	A91F00  	LDA #$001F
81B58F:	540000  	MVN $00,$00
81B592:	ADDA06  	LDA $06DA
81B595:	3A      	DEC A
81B596:	3A      	DEC A
81B597:	29FF00  	AND #$00FF
81B59A:	EB      	XBA 
81B59B:	4A      	LSR A
81B59C:	4A      	LSR A
81B59D:	18      	CLC 
81B59E:	69CB9D  	ADC #$9DCB
81B5A1:	AA      	TAX 
81B5A2:	A0AE00  	LDY #$00AE
81B5A5:	A93F00  	LDA #$003F
81B5A8:	540000  	MVN $00,$00
81B5AB:	E220    	SEP #$20
81B5AD:	AB      	PLB 
81B5AE:	60      	RTS

###WRITE SCROLL HDMA TABLE#####
81B5AF:	8B      	PHB 
81B5B0:	C220    	REP #$20
81B5B2:	A25B9D  	LDX #$9D5B
81B5B5:	A01008  	LDY #$0810
81B5B8:	A90900  	LDA #$0009
81B5BB:	540000  	MVN $00,$00
81B5BE:	E220    	SEP #$20
81B5C0:	0B      	PHD 
81B5C1:	F40043  	PEA $4300
81B5C4:	2B      	PLD 
81B5C5:	A20210  	LDX #$1002
81B5C8:	8600    	STX $00
81B5CA:	A21008  	LDX #$0810
81B5CD:	8602    	STX $02
81B5CF:	6404    	STZ $04
81B5D1:	6407    	STZ $07
81B5D3:	A2002C  	LDX #$2C00
81B5D6:	8610    	STX $10
81B5D8:	A2659D  	LDX #$9D65
81B5DB:	8612    	STX $12
81B5DD:	6414    	STZ $14
81B5DF:	6417    	STZ $17
81B5E1:	2B      	PLD 
81B5E2:	AB      	PLB 
81B5E3:	60      	RTS
 
81B5E4:	A900    	LDA #$00
81B5E6:	EB      	XBA 
81B5E7:	ADDA06  	LDA $06DA
81B5EA:	3A      	DEC A
81B5EB:	3A      	DEC A
81B5EC:	0A      	ASL
81B5ED:	A8      	TAY 
81B5EE:	8B      	PHB 
81B5EF:	4B      	PHK 
81B5F0:	AB      	PLB 
81B5F1:	BE06B7  	LDX $B706,Y
81B5F4:	8E0208  	STX $0802
81B5F7:	A20605  	LDX #$0506
81B5FA:	8E0408  	STX $0804
81B5FD:	A20000  	LDX #$0000
81B600:	8E0008  	STX $0800
81B603:	A903    	LDA #$03
81B605:	8D0608  	STA $0806
81B608:	9C0808  	STZ $0808
81B60B:	AB      	PLB 
81B60C:	60      	RTS

#####Write text tilemap#######
81B60D:	A900    	LDA #$00
81B60F:	EB      	XBA 
81B610:	AD0008  	LDA $0800
81B613:	0A      	ASL
81B614:	AA      	TAX 
81B615:	7C18B6  	JMP ($B618,x)
81B618:
	dw $B61E, $B6CB, $B6FB
81B61E:	CE0108  	DEC $0801		timer
81B621:	3003    	BMI $B626
81B623:	4CC9B6  	JMP $B6C9
81B626:	A908    	LDA #$08
81B628:	8D0108  	STA $0801		timer
81B62B:	AE0208  	LDX $0802		txt pos
81B62E:	AC0408  	LDY $0804		map pos
81B631:	C220    	REP #$20
81B633:	8B      	PHB 
81B634:	4B      	PHK 
81B635:	AB      	PLB 
81B636:	BD0000  	LDA $0000,x		read text
81B639:	E8      	INX 
81B63A:	29FF00  	AND #$00FF
81B63D:	C9FF00  	CMP #$00FF
81B640:	D007    	BNE $B649
81B642:	AB      	PLB 
81B643:	E220    	SEP #$20
81B645:	38      	SEC 
81B646:	4CCAB6  	JMP $B6CA
81B649:	C9FD00  	CMP #$00FD	ankoku
81B64C:	D00B    	BNE $B659
81B64E:	E220    	SEP #$20
81B650:	A901    	LDA #$01
81B652:	8D2008  	STA $0820	irq mode?
81B655:	C220    	REP #$20
81B657:	80DD    	BRA $B636
81B659:	C9FE00  	CMP #$00FE  line
81B65C:	D02E    	BNE $B68C
81B65E:	98      	TYA 
81B65F:	29C0FF  	AND #$FFC0
81B662:	18      	CLC 
81B663:	698600  	ADC #$0086
81B666:	A8      	TAY 
81B667:	E220    	SEP #$20
81B669:	8E0208  	STX $0802
81B66C:	8C0408  	STY $0804
81B66F:	CE0608  	DEC $0806	remain line
81B672:	D011    	BNE $B685
81B674:	A20000  	LDX #$0000
81B677:	8E1708  	STX $0817
81B67A:	9C0808  	STZ $0808
81B67D:	A901    	LDA #$01
81B67F:	8D0008  	STA $0800
81B682:	4CC8B6  	JMP $B6C8
81B685:	A910    	LDA #$10
81B687:	8D0108  	STA $0801
81B68A:	803C    	BRA $B6C8
81B68C:	090002  	ORA #$0200
81B68F:	994010  	STA $1040,Y
81B692:	BD0000  	LDA $0000,x
81B695:	29FF00  	AND #$00FF
81B698:	C98700  	CMP #$0087
81B69B:	F00F    	BEQ $B6AC
81B69D:	C98800  	CMP #$0088
81B6A0:	F00A    	BEQ $B6AC
81B6A2:	C9C700  	CMP #$00C7
81B6A5:	F005    	BEQ $B6AC
81B6A7:	C9C800  	CMP #$00C8
81B6AA:	D007    	BNE $B6B3
81B6AC:	090002  	ORA #$0200
81B6AF:	990010  	STA $1000,Y
81B6B2:	E8      	INX 
81B6B3:	C8      	INY 
81B6B4:	C8      	INY 
81B6B5:	8E0208  	STX $0802
81B6B8:	8C0408  	STY $0804
81B6BB:	AD0808  	LDA $0808
81B6BE:	29FF00  	AND #$00FF
81B6C1:	F003    	BEQ $B6C6
81B6C3:	4C36B6  	JMP $B636

81B6C6:	E220    	SEP #$20
81B6C8:	AB      	PLB 
81B6C9:	18      	CLC 
81B6CA:	60      	RTS

###### SCROLL #########
81B6CB:	AE1708  	LDX $0817
81B6CE:	E8      	INX 
81B6CF:	8E1708  	STX $0817
81B6D2:	E01000  	CPX #$0010
81B6D5:	9022    	BCC $B6F9
81B6D7:	8B      	PHB 
81B6D8:	C220    	REP #$20
81B6DA:	A28015  	LDX #$1580
81B6DD:	A00015  	LDY #$1500
81B6E0:	A97F01  	LDA #$017F
81B6E3:	540000  	MVN $00,$00
81B6E6:	E220    	SEP #$20
81B6E8:	AB      	PLB 
81B6E9:	A20606  	LDX #$0606
81B6EC:	8E0408  	STX $0804
81B6EF:	A901    	LDA #$01
81B6F1:	8D0608  	STA $0806
81B6F4:	A902    	LDA #$02
81B6F6:	8D0008  	STA $0800
81B6F9:	18      	CLC 
81B6FA:	60      	RTS

######End Scroll##########
81B6FB:	A20000  	LDX #$0000
81B6FE:	8E1708  	STX $0817
81B701:	9C0008  	STZ $0800
81B704:	18      	CLC 
81B705:	60      	RTS

81C100:	ADDA06  	LDA $06DA	stage
81C103:	C908    	CMP #$08
81C105:	F003    	BEQ $C10A
81C107:	4C76C1  	JMP $C176
81C10A:	CE2108  	DEC $0821
81C10D:	1025    	BPL $C134
81C10F:	A904    	LDA #$04
81C111:	8D2108  	STA $0821
81C114:	C220    	REP #$20
81C116:	A20000  	LDX #$0000
81C119:	BDAE00  	LDA $00AE,x
81C11C:	8D0000  	STA $0000
81C11F:	BDCE00  	LDA $00CE,x
81C122:	9DAE00  	STA $00AE,x
81C125:	AD0000  	LDA $0000
81C128:	9DCE00  	STA $00CE,x
81C12B:	E8      	INX 
81C12C:	E8      	INX 
81C12D:	E02000  	CPX #$0020
81C130:	90E7    	BCC $C119
81C132:	E220    	SEP #$20
81C134:	AD2008  	LDA $0820
81C137:	F02B    	BEQ $C164
81C139:	CE2208  	DEC $0822
81C13C:	101B    	BPL $C159
81C13E:	A902    	LDA #$02
81C140:	8D2208  	STA $0822
81C143:	C220    	REP #$20
81C145:	ADCA00  	LDA $00CA
81C148:	2077C1  	JSR $C177
81C14B:	8DCA00  	STA $00CA
81C14E:	ADEA00  	LDA $00EA
81C151:	2077C1  	JSR $C177
81C154:	8DEA00  	STA $00EA
81C157:	E220    	SEP #$20
81C159:	CE2308  	DEC $0823
81C15C:	D006    	BNE $C164
81C15E:	A947    	LDA #$47
81C160:	22448482	JSR $828444
81C164:	AD2508  	LDA $0825
81C167:	F00D    	BEQ $C176
81C169:	CE2408  	DEC $0824
81C16C:	1008    	BPL $C176
81C16E:	A902    	LDA #$02
81C170:	8D2408  	STA $0824
81C173:	CE2508  	DEC $0825
81C176:	60      	RTS

81C177:	8D0000  	STA $0000
81C17A:	29007C  	AND #$7C00
81C17D:	C9007C  	CMP #$7C00
81C180:	F004    	BEQ $C186
81C182:	18      	CLC 
81C183:	690004  	ADC #$0400
81C186:	8D0200  	STA $0002
81C189:	AD0000  	LDA $0000
81C18C:	29E003  	AND #$03E0
81C18F:	C9E003  	CMP #$03E0
81C192:	F004    	BEQ $C198
81C194:	18      	CLC 
81C195:	692000  	ADC #$0020
81C198:	0D0200  	ORA $0002
81C19B:	8D0200  	STA $0002
81C19E:	AD0000  	LDA $0000
81C1A1:	29007C  	AND #$7C00
81C1A4:	0D0200  	ORA $0002
81C1A7:	60      	RTS

81C1A8:	ADDA06  	LDA $06DA
81C1AB:	C908    	CMP #$08
81C1AD:	D00D    	BNE $C1BC
81C1AF:	AD2508  	LDA $0825
81C1B2:	8F0E2100	STA $00210E
81C1B6:	A900    	LDA #$00
81C1B8:	8F0E2100	STA $00210E
81C1BC:	60      	RTS

############ENDING#############
81C3E3:	AD8A07  	LDA $078A
81C3E6:	D003    	BNE $C3EB
81C3E8:	4CCEC4  	JMP $C4CE
81C3EB:	8B      	PHB 
81C3EC:	A980    	LDA #$80
81C3EE:	8D0021  	STA $2100
81C3F1:	A2C8A6  	LDX #$A6C8
81C3F4:	22318200	JSR $008231	ppu
81C3F8:	226A8200	JSR $00826A  init oam
81C3FC:	20CFC4  	JSR $C4CF		dma dragon oam set
81C3FF:	2018C5  	JSR $C518		dma bg2 set
81C402:	2095C5  	JSR $C595		dma bg2map
81C405:	A21AA7  	LDX #$A71A
81C408:	22928200	JSR $008292	write ending color
81C40C:	A9F6    	LDA #$F6
81C40E:	22B88382	JSR $8283B8		sfx
81C412:	A909    	LDA #$09
81C414:	22648382	JSR $828364	bgm
81C418:	203BC8  	JSR $C83B	hdma table
81C41B:	A900    	LDA #$00
81C41D:	8D0021  	STA $2100
81C420:	9CF00F  	STZ $0FF0
81C423:	9CF10F  	STZ $0FF1
81C426:	9C2008  	STZ $0820
81C429:	9C2108  	STZ $0821
81C42C:	9C2208  	STZ $0822
81C42F:	A20001  	LDX #$0100
81C432:	8E0908  	STX $0809
81C435:	A903    	LDA #$03
81C437:	8D4D00  	STA $004D
81C43A:	9CDC06  	STZ $06DC
81C43D:	9C4100  	STZ $0041
81C440:	AD4100  	LDA $0041
81C443:	F0FB    	BEQ $C440
81C445:	20D1C7  	JSR $C7D1	bg1 scroll
81C448:	2005C6  	JSR $C605	dmabg2map
81C44B:	229D8482	JSR $82849D
81C44F:	A900    	LDA #$00
81C451:	EB      	XBA 
81C452:	ADDC06  	LDA $06DC
81C455:	0A      	ASL
81C456:	AA      	TAX 
81C457:	7C5AC4  	JMP ($C45A,x)
81C45A:
	dw $C464, $C48A, $C498
	dw $C4AB, $C4CD
	
81C464:	CEF00F  	DEC $0FF0
81C467:	101E    	BPL $C487
81C469:	A903    	LDA #$03
81C46B:	8DF00F  	STA $0FF0
81C46E:	ADF10F  	LDA $0FF1
81C471:	1A      	INC A
81C472:	C910    	CMP #$10
81C474:	F009    	BEQ $C47F
81C476:	8DF10F  	STA $0FF1
81C479:	8F002100	STA $002100
81C47D:	8008    	BRA $C487
81C47F:	A901    	LDA #$01
81C481:	8D2108  	STA $0821
81C484:	EEDC06  	INC $06DC
81C487:	4C3DC4  	JMP $C43D

81C48A:	2032C6  	JSR $C632	check bg1pos
81C48D:	9006    	BCC $C495
81C48F:	9C2108  	STZ $0821
81C492:	EEDC06  	INC $06DC
81C495:	4C3DC4  	JMP $C43D

81C498:	20E0C7  	JSR $C7E0
81C49B:	900B    	BCC $C4A8
81C49D:	9CF00F  	STZ $0FF0
81C4A0:	A90F    	LDA #$0F
81C4A2:	8DF10F  	STA $0FF1
81C4A5:	EEDC06  	INC $06DC
81C4A8:	4C3DC4  	JMP $C43D

81C4AB:	CEF00F  	DEC $0FF0
81C4AE:	D01A    	BNE $C4CA
81C4B0:	A902    	LDA #$02
81C4B2:	8DF00F  	STA $0FF0
81C4B5:	ADF10F  	LDA $0FF1
81C4B8:	3A      	DEC A
81C4B9:	3009    	BMI $C4C4
81C4BB:	8DF10F  	STA $0FF1
81C4BE:	8F002100	STA $002100
81C4C2:	8006    	BRA $C4CA
81C4C4:	9C4D00  	STZ $004D
81C4C7:	EEDC06  	INC $06DC
81C4CA:	4C3DC4  	JMP $C43D

81C4CD:	AB      	PLB 
81C4CE:	6B      	RTL

##########DMA ENDING OAM BG SET########
81C4CF:	8B      	PHB 
81C4D0:	F40000  	PEA $0000
81C4D3:	AB      	PLB 
81C4D4:	AB      	PLB 
81C4D5:	A21FB5  	LDX #$B51F
81C4D8:	A907    	LDA #$07
81C4DA:	8EDD06  	STX $06DD
81C4DD:	8DDF06  	STA $06DF
81C4E0:	A20080  	LDX #$8000
81C4E3:	A97E    	LDA #$7E
81C4E5:	8EE006  	STX $06E0
81C4E8:	8DE206  	STA $06E2
81C4EB:	22F68182	JSR $8281F6
81C4EF:	F40043  	PEA $4300
81C4F2:	2B      	PLD 
81C4F3:	A980    	LDA #$80
81C4F5:	8D1521  	STA $2115
81C4F8:	A20118  	LDX #$1801
81C4FB:	8670    	STX $70
81C4FD:	A20080  	LDX #$8000
81C500:	A97E    	LDA #$7E
81C502:	8672    	STX $72
81C504:	8574    	STA $74
81C506:	A20060  	LDX #$6000
81C509:	8E1621  	STX $2116
81C50C:	A2003A  	LDX #$3A00
81C50F:	8675    	STX $75
81C511:	A980    	LDA #$80
81C513:	8D0B42  	STA $420B
81C516:	AB      	PLB 
81C517:	60      	RTS

#######DMA ENDING BG2 SET###########
81C518:	8B      	PHB 
81C519:	F40000  	PEA $0000
81C51C:	AB      	PLB 
81C51D:	AB      	PLB 
81C51E:	A20080  	LDX #$8000
81C521:	A91E    	LDA #$1E
81C523:	8EDD06  	STX $06DD
81C526:	8DDF06  	STA $06DF
81C529:	A20080  	LDX #$8000
81C52C:	A97E    	LDA #$7E
81C52E:	8EE006  	STX $06E0
81C531:	8DE206  	STA $06E2
81C534:	22F68182	JSR $8281F6
81C538:	A22BE1  	LDX #$E12B
81C53B:	A90D    	LDA #$0D
81C53D:	8EDD06  	STX $06DD
81C540:	8DDF06  	STA $06DF
81C543:	A20088  	LDX #$8800
81C546:	A97E    	LDA #$7E
81C548:	8EE006  	STX $06E0
81C54B:	8DE206  	STA $06E2
81C54E:	22F68182	JSR $8281F6
81C552:	A2A989  	LDX #$89A9
81C555:	A905    	LDA #$05
81C557:	8EDD06  	STX $06DD
81C55A:	8DDF06  	STA $06DF
81C55D:	A200C0  	LDX #$C000
81C560:	A97E    	LDA #$7E
81C562:	8EE006  	STX $06E0
81C565:	8DE206  	STA $06E2
81C568:	22F68182	JSR $8281F6
81C56C:	F40043  	PEA $4300
81C56F:	2B      	PLD 
81C570:	A980    	LDA #$80
81C572:	8D1521  	STA $2115
81C575:	A20118  	LDX #$1801
81C578:	8670    	STX $70
81C57A:	A20080  	LDX #$8000
81C57D:	A97E    	LDA #$7E
81C57F:	8672    	STX $72
81C581:	8574    	STA $74
81C583:	A20000  	LDX #$0000
81C586:	8E1621  	STX $2116
81C589:	A20060  	LDX #$6000
81C58C:	8675    	STX $75
81C58E:	A980    	LDA #$80
81C590:	8D0B42  	STA $420B
81C593:	AB      	PLB 
81C594:	60      	RTS

#####DMA ENDING BG2 MAP########
81C595:	8B      	PHB 
81C596:	C220    	REP #$20
81C598:	A20080  	LDX #$8000
81C59B:	A00180  	LDY #$8001
81C59E:	A90000  	LDA #$0000
81C5A1:	8F00807E	STA $7E8000
81C5A5:	A9FF0F  	LDA #$0FFF
81C5A8:	547E7E  	MVN $7E,$7E
81C5AB:	E220    	SEP #$20
81C5AD:	F40000  	PEA $0000
81C5B0:	AB      	PLB 
81C5B1:	AB      	PLB 
81C5B2:	A20585  	LDX #$8505
81C5B5:	A91E    	LDA #$1E
81C5B7:	8EDD06  	STX $06DD
81C5BA:	8DDF06  	STA $06DF
81C5BD:	A20090  	LDX #$9000
81C5C0:	A97E    	LDA #$7E
81C5C2:	8EE006  	STX $06E0
81C5C5:	8DE206  	STA $06E2
81C5C8:	22F68182	JSR $8281F6
81C5CC:	F40043  	PEA $4300
81C5CF:	2B      	PLD 
81C5D0:	A980    	LDA #$80
81C5D2:	8D1521  	STA $2115
81C5D5:	A20118  	LDX #$1801
81C5D8:	8670    	STX $70
81C5DA:	A20080  	LDX #$8000
81C5DD:	A97E    	LDA #$7E
81C5DF:	8672    	STX $72
81C5E1:	8574    	STA $74
81C5E3:	A20030  	LDX #$3000
81C5E6:	8E1621  	STX $2116
81C5E9:	A20018  	LDX #$1800
81C5EC:	8675    	STX $75
81C5EE:	A980    	LDA #$80
81C5F0:	8D0B42  	STA $420B
81C5F3:	C220    	REP #$20
81C5F5:	A20090  	LDX #$9000
81C5F8:	A00010  	LDY #$1000
81C5FB:	A9FF07  	LDA #$07FF
81C5FE:	54007E  	MVN $00,$7E
81C601:	E220    	SEP #$20
81C603:	AB      	PLB 
81C604:	60      	RTS

#######DMA ENDING BG2 MAP#########
81C605:	8B      	PHB 
81C606:	F40000  	PEA $0000
81C609:	AB      	PLB 
81C60A:	AB      	PLB 
81C60B:	F40043  	PEA $4300
81C60E:	2B      	PLD 
81C60F:	A980    	LDA #$80
81C611:	8D1521  	STA $2115
81C614:	A20118  	LDX #$1801
81C617:	8670    	STX $70
81C619:	A20010  	LDX #$1000
81C61C:	8672    	STX $72
81C61E:	6474    	STZ $74
81C620:	A20038  	LDX #$3800
81C623:	8E1621  	STX $2116
81C626:	A24007  	LDX #$0740
81C629:	8675    	STX $75
81C62B:	A980    	LDA #$80
81C62D:	8D0B42  	STA $420B
81C630:	AB      	PLB 
81C631:	60      	RTS

##########CHECK BG1 POS#########
81C632:	A900    	LDA #$00
81C634:	EB      	XBA 
81C635:	AD2108  	LDA $0821
81C638:	0A      	ASL
81C639:	AA      	TAX 
81C63A:	7C3DC6  	JMP ($C63D,x)
81C63D:
	dw $C653, $C655, $C660, $C687
	dw $C697, $C6A7, $C6BA, $C6CA
	dw $C6E8, $C6F8, $C706
	
	
######RETURN CHECK BG1 POS########
81C653:	18      	CLC 
81C654:	60      	RTS

#####SET BG1 POS######
81C655:	A20001  	LDX #$0100
81C658:	8E0908  	STX $0809
81C65B:	EE2108  	INC $0821
81C65E:	80F3    	BRA $C653

81C660:	2033C7  	JSR $C733
81C663:	2056C7  	JSR $C756	decomp chara set
81C666:	A20006  	LDX #$0600
81C669:	8E4E00  	STX $004E
81C66C:	A20012  	LDX #$1200
81C66F:	A00080  	LDY #$8000
81C672:	A97E    	LDA #$7E
81C674:	8E5000  	STX $0050
81C677:	8C5200  	STY $0052
81C67A:	8D5400  	STA $0054
81C67D:	A901    	LDA #$01
81C67F:	8D4200  	STA $0042
81C682:	EE2108  	INC $0821
81C685:	80CC    	BRA $C653

81C687:	A20006  	LDX #$0600
81C68A:	8E4E00  	STX $004E
81C68D:	A20015  	LDX #$1500
81C690:	A00086  	LDY #$8600
81C693:	A97E    	LDA #$7E
81C695:	80DD    	BRA $C674

81C697:	A20004  	LDX #$0400
81C69A:	8E4E00  	STX $004E
81C69D:	A20018  	LDX #$1800
81C6A0:	A0008C  	LDY #$8C00
81C6A3:	A97E    	LDA #$7E
81C6A5:	80CD    	BRA $C674

81C6A7:	2088C7  	JSR $C788		decomp chara 2
81C6AA:	A20004  	LDX #$0400
81C6AD:	8E4E00  	STX $004E
81C6B0:	A20030  	LDX #$3000
81C6B3:	A00080  	LDY #$8000
81C6B6:	A97E    	LDA #$7E
81C6B8:	80BA    	BRA $C674

81C6BA:	A20004  	LDX #$0400
81C6BD:	8E4E00  	STX $004E
81C6C0:	A20032  	LDX #$3200
81C6C3:	A00084  	LDY #$8400
81C6C6:	A97E    	LDA #$7E
81C6C8:	80AA    	BRA $C674

81C6CA:	C220    	REP #$20
81C6CC:	AD0908  	LDA $0809
81C6CF:	F00C    	BEQ $C6DD
81C6D1:	1A      	INC A
81C6D2:	1A      	INC A
81C6D3:	29FF01  	AND #$01FF
81C6D6:	8D0908  	STA $0809
81C6D9:	E220    	SEP #$20
81C6DB:	8008    	BRA $C6E5

81C6DD:	E220    	SEP #$20
81C6DF:	20DDCC  	JSR $CCDD
81C6E2:	EE2108  	INC $0821
81C6E5:	4C53C6  	JMP $C653

#########TEXT#############
81C6E8:	200DB6  	JSR $B60D	write tilemap
81C6EB:	9008    	BCC $C6F5
81C6ED:	A990    	LDA #$90
81C6EF:	8D2308  	STA $0823
81C6F2:	EE2108  	INC $0821
81C6F5:	4C53C6  	JMP $C653		CLC

81C6F8:	CE2308  	DEC $0823
81C6FB:	D006    	BNE $C703
81C6FD:	20D5CF  	JSR $CFD5
81C700:	EE2108  	INC $0821
81C703:	4C53C6  	JMP $C653	CLC

81C706:	C220    	REP #$20
81C708:	AD0908  	LDA $0809
81C70B:	C9C000  	CMP #$00C0
81C70E:	F00C    	BEQ $C71C
81C710:	1A      	INC A
81C711:	1A      	INC A
81C712:	29FF01  	AND #$01FF
81C715:	8D0908  	STA $0809
81C718:	E220    	SEP #$20
81C71A:	8014    	BRA $C730

81C71C:	E220    	SEP #$20
81C71E:	EE2208  	INC $0822
81C721:	AD2208  	LDA $0822
81C724:	C906    	CMP #$06
81C726:	9003    	BCC $C72B
81C728:	4C54C6  	JMP $C654

81C72B:	A901    	LDA #$01
81C72D:	8D2108  	STA $0821
81C730:	4C53C6  	JMP $C653

81C733:	8B      	PHB 
81C734:	F40000  	PEA $0000
81C737:	AB      	PLB 
81C738:	AB      	PLB 
81C739:	C220    	REP #$20
81C73B:	AD2208  	LDA $0822
81C73E:	29FF00  	AND #$00FF
81C741:	EB      	XBA 
81C742:	4A      	LSR A
81C743:	4A      	LSR A
81C744:	18      	CLC 
81C745:	69EB9D  	ADC #$9DEB
81C748:	AA      	TAX 
81C749:	A0CE00  	LDY #$00CE
81C74C:	A91F00  	LDA #$001F
81C74F:	540000  	MVN $00,$00
81C752:	E220    	SEP #$20
81C754:	AB      	PLB 
81C755:	60      	RTS

########DECOMP CHARA SET########
81C756:	8B      	PHB 
81C757:	F40000  	PEA $0000
81C75A:	AB      	PLB 
81C75B:	AB      	PLB 
81C75C:	A900    	LDA #$00
81C75E:	EB      	XBA 
81C75F:	AD2208  	LDA $0822		chara
81C762:	8D0000  	STA $0000
81C765:	0A      	ASL
81C766:	18      	CLC 
81C767:	6D0000  	ADC $0000
81C76A:	A8      	TAY 
81C76B:	BE819D  	LDX $9D81,Y
81C76E:	B9839D  	LDA $9D83,Y
81C771:	8EDD06  	STX $06DD
81C774:	8DDF06  	STA $06DF
81C777:	A20080  	LDX #$8000
81C77A:	A97E    	LDA #$7E
81C77C:	8EE006  	STX $06E0
81C77F:	8DE206  	STA $06E2
81C782:	22F68182	JSR $8281F6
81C786:	AB      	PLB 
81C787:	60      	RTS

81C788:	8B      	PHB 
81C789:	C220    	REP #$20
81C78B:	A20080  	LDX #$8000
81C78E:	A00180  	LDY #$8001
81C791:	A90000  	LDA #$0000
81C794:	8F00807E	STA $7E8000
81C798:	A9FF07  	LDA #$07FF
81C79B:	547E7E  	MVN $7E,$7E
81C79E:	E220    	SEP #$20
81C7A0:	F40000  	PEA $0000
81C7A3:	AB      	PLB 
81C7A4:	AB      	PLB 
81C7A5:	A900    	LDA #$00
81C7A7:	EB      	XBA 
81C7A8:	AD2208  	LDA $0822	chara
81C7AB:	8D0000  	STA $0000
81C7AE:	0A      	ASL
81C7AF:	18      	CLC 
81C7B0:	6D0000  	ADC $0000
81C7B3:	A8      	TAY 
81C7B4:	BE969D  	LDX $9D96,Y
81C7B7:	B9989D  	LDA $9D98,Y
81C7BA:	8EDD06  	STX $06DD
81C7BD:	8DDF06  	STA $06DF
81C7C0:	A20080  	LDX #$8000
81C7C3:	A97E    	LDA #$7E
81C7C5:	8EE006  	STX $06E0
81C7C8:	8DE206  	STA $06E2
81C7CB:	22F68182	JSR $8281F6
81C7CF:	AB      	PLB 
81C7D0:	60      	RTS

#####ENDING BG1 SCROLL######
81C7D1:	AD0908  	LDA $0809
81C7D4:	8F0D2100	STA $00210D
81C7D8:	AD0A08  	LDA $080A
81C7DB:	8F0D2100	STA $00210D
81C7DF:	60      	RTS

81C7E0:	A900    	LDA #$00
81C7E2:	EB      	XBA 
81C7E3:	AD2108  	LDA $0821
81C7E6:	0A      	ASL
81C7E7:	AA      	TAX 
81C7E8:	7CEBC7  	JMP ($C7EB,x)
81C7EB:
	dw $C7F3, $C815, $C82C
81C7F1:	18      	CLC 
81C7F2:	60      	RTS
 
81C7F3:	A2B0CE  	LDX #$CEB0
81C7F6:	8E0208  	STX $0802
81C7F9:	A20605  	LDX #$0506
81C7FC:	8E0408  	STX $0804
81C7FF:	A20020  	LDX #$2000
81C802:	8E0008  	STX $0800
81C805:	A903    	LDA #$03
81C807:	8D0608  	STA $0806
81C80A:	9C0808  	STZ $0808
81C80D:	209CC9  	JSR $C99C
81C810:	EE2108  	INC $0821
81C813:	80DC    	BRA $C7F1

81C815:	200DB6  	JSR $B60D
81C818:	2070C8  	JSR $C870
81C81B:	AD0807  	LDA $0708
81C81E:	C90E    	CMP #$0E
81C820:	D008    	BNE $C82A
81C822:	A900    	LDA #$00
81C824:	8D2407  	STA $0724
81C827:	EE2108  	INC $0821
81C82A:	80C5    	BRA $C7F1

81C82C:	200DB6  	JSR $B60D
81C82F:	CE2407  	DEC $0724
81C832:	D004    	BNE $C838
81C834:	38      	SEC 
81C835:	4CF2C7  	JMP $C7F2
81C838:	4CF1C7  	JMP $C7F1

####ENDING HDMA######
81C83B:	8B      	PHB 
81C83C:	C220    	REP #$20
81C83E:	A25B9D  	LDX #$9D5B
81C841:	A01008  	LDY #$0810
81C844:	A90900  	LDA #$0009
81C847:	540000  	MVN $00,$00
81C84A:	E220    	SEP #$20
81C84C:	0B      	PHD 
81C84D:	F40043  	PEA $4300
81C850:	2B      	PLD 
81C851:	A20210  	LDX #$1002
81C854:	8600    	STX $00
81C856:	A21008  	LDX #$0810
81C859:	8602    	STX $02
81C85B:	6404    	STZ $04
81C85D:	6407    	STZ $07
81C85F:	A2002C  	LDX #$2C00
81C862:	8610    	STX $10
81C864:	A213A7  	LDX #$A713
81C867:	8612    	STX $12
81C869:	6414    	STZ $14
81C86B:	6417    	STZ $17
81C86D:	2B      	PLD 
81C86E:	AB      	PLB 
81C86F:	60      	RTS

81C870:	A20607  	LDX #$0706
81C873:	8E0007  	STX $0700
81C876:	BC0000  	LDY $0000,x
81C879:	F01F    	BEQ $C89A
81C87B:	FC0000  	JSR ($0000,x)
81C87E:	AE0007  	LDX $0700
81C881:	DE0500  	DEC $0005,x
81C884:	1011    	BPL $C897
81C886:	BD0700  	LDA $0007,x
81C889:	1A      	INC A
81C88A:	DD0800  	CMP $0008,x
81C88D:	9002    	BCC $C891
81C88F:	A900    	LDA #$00
81C891:	9D0700  	STA $0007,x
81C894:	20ACC8  	JSR $C8AC
81C897:	2005C9  	JSR $C905
81C89A:	C220    	REP #$20
81C89C:	AD0007  	LDA $0700
81C89F:	18      	CLC 
81C8A0:	692000  	ADC #$0020
81C8A3:	AA      	TAX 
81C8A4:	E220    	SEP #$20
81C8A6:	E04607  	CPX #$0746
81C8A9:	90C8    	BCC $C873
81C8AB:	60      	RTS

81C8AC:	8B      	PHB 
81C8AD:	F40000  	PEA $0000
81C8B0:	AB      	PLB 
81C8B1:	AB      	PLB 
81C8B2:	BD0700  	LDA $0007,x
81C8B5:	C220    	REP #$20
81C8B7:	29FF00  	AND #$00FF
81C8BA:	8D0000  	STA $0000
81C8BD:	0A      	ASL
81C8BE:	18      	CLC 
81C8BF:	6D0000  	ADC $0000
81C8C2:	18      	CLC 
81C8C3:	7D1200  	ADC $0012,x
81C8C6:	A8      	TAY 
81C8C7:	E220    	SEP #$20
81C8C9:	B90000  	LDA $0000,Y
81C8CC:	9D0500  	STA $0005,x
81C8CF:	C220    	REP #$20
81C8D1:	B90100  	LDA $0001,Y
81C8D4:	A8      	TAY 
81C8D5:	BD1000  	LDA $0010,x
81C8D8:	AA      	TAX 
81C8D9:	B90400  	LDA $0004,Y
81C8DC:	290300  	AND #$0003
81C8DF:	C90100  	CMP #$0001
81C8E2:	F008    	BEQ $C8EC
81C8E4:	B01B    	BCS $C901
81C8E6:	2271A982	JSR $82A971
81C8EA:	8004    	BRA $C8F0
81C8EC:	223DA982	JSR $82A93D
81C8F0:	B90200  	LDA $0002,Y
81C8F3:	9D9002  	STA $0290,x
81C8F6:	E8      	INX 
81C8F7:	E8      	INX 
81C8F8:	E8      	INX 
81C8F9:	E8      	INX 
81C8FA:	C8      	INY 
81C8FB:	C8      	INY 
81C8FC:	C8      	INY 
81C8FD:	C8      	INY 
81C8FE:	C8      	INY 
81C8FF:	80D8    	BRA $C8D9
81C901:	E220    	SEP #$20
81C903:	AB      	PLB 
81C904:	60      	RTS

81C905:	8B      	PHB 
81C906:	F40000  	PEA $0000
81C909:	AB      	PLB 
81C90A:	AB      	PLB 
81C90B:	AE0007  	LDX $0700
81C90E:	BD0700  	LDA $0007,x
81C911:	C220    	REP #$20
81C913:	29FF00  	AND #$00FF
81C916:	8D0000  	STA $0000
81C919:	0A      	ASL
81C91A:	18      	CLC 
81C91B:	6D0000  	ADC $0000
81C91E:	18      	CLC 
81C91F:	7D1200  	ADC $0012,x
81C922:	A8      	TAY 
81C923:	B90100  	LDA $0001,Y
81C926:	A8      	TAY 
81C927:	BD0300  	LDA $0003,x
81C92A:	8D0200  	STA $0002
81C92D:	BD1000  	LDA $0010,x
81C930:	AA      	TAX 
81C931:	A92000  	LDA #$0020
81C934:	8D0000  	STA $0000
81C937:	E220    	SEP #$20
81C939:	B90400  	LDA $0004,Y
81C93C:	C902    	CMP #$02
81C93E:	F047    	BEQ $C987
81C940:	B90000  	LDA $0000,Y
81C943:	3015    	BMI $C95A
81C945:	18      	CLC 
81C946:	6D0200  	ADC $0002
81C949:	9D8E02  	STA $028E,x
81C94C:	9006    	BCC $C954
81C94E:	2299A982	JSR $82A999
81C952:	8019    	BRA $C96D
81C954:	22CDA982	JSR $82A9CD
81C958:	8013    	BRA $C96D
81C95A:	18      	CLC 
81C95B:	6D0200  	ADC $0002
81C95E:	9D8E02  	STA $028E,x
81C961:	9006    	BCC $C969
81C963:	22CDA982	JSR $82A9CD
81C967:	8004    	BRA $C96D
81C969:	2299A982	JSR $82A999
81C96D:	AD0300  	LDA $0003
81C970:	18      	CLC 
81C971:	790100  	ADC $0001,Y
81C974:	9D8F02  	STA $028F,x
81C977:	E8      	INX 
81C978:	E8      	INX 
81C979:	E8      	INX 
81C97A:	E8      	INX 
81C97B:	C8      	INY 
81C97C:	C8      	INY 
81C97D:	C8      	INY 
81C97E:	C8      	INY 
81C97F:	C8      	INY 
81C980:	CE0000  	DEC $0000
81C983:	D0B4    	BNE $C939
81C985:	8013    	BRA $C99A
81C987:	C220    	REP #$20
81C989:	A900F0  	LDA #$F000
81C98C:	9D8E02  	STA $028E,x
81C98F:	E8      	INX 
81C990:	E8      	INX 
81C991:	E8      	INX 
81C992:	E8      	INX 
81C993:	CE0000  	DEC $0000
81C996:	D0F4    	BNE $C98C
81C998:	E220    	SEP #$20
81C99A:	AB      	PLB 
81C99B:	60      	RTS
 
81C99C:	C220    	REP #$20
81C99E:	A20607  	LDX #$0706
81C9A1:	A00707  	LDY #$0707
81C9A4:	9C0607  	STZ $0706
81C9A7:	A93E00  	LDA #$003E
81C9AA:	540000  	MVN $00,$00
81C9AD:	E220    	SEP #$20
81C9AF:	A2B9C9  	LDX #$C9B9
81C9B2:	8E0607  	STX $0706
81C9B5:	9C0807  	STZ $0708
81C9B8:	60      	RTS

81C9B9:	AE0007  	LDX $0700
81C9BC:	A900    	LDA #$00
81C9BE:	EB      	XBA 
81C9BF:	BD0200  	LDA $0002,x
81C9C2:	0A      	ASL
81C9C3:	AA      	TAX 
81C9C4:	7CC7C9  	JMP ($C9C7,x)
81C9C7:
dw $C9E6, $CA10, $CA3D, $CA58
dw $CA70, $CA88, $CAA0, $CAB8
dw $CACF, $CAD2, $CAE0, $CAFF
dw $CB35, $CB71, $CB83
81C9E5:
	RTS
81C9E6:	AE0007  	LDX $0700
81C9E9:	9E0500  	STZ $0005,x
81C9EC:	C220    	REP #$20
81C9EE:	A9F087  	LDA #$87F0
81C9F1:	9D0300  	STA $0003,x
81C9F4:	A90002  	LDA #$0200
81C9F7:	9D0700  	STA $0007,x
81C9FA:	9E0D00  	STZ $000D,x
81C9FD:	A98000  	LDA #$0080
81CA00:	9D1000  	STA $0010,x
81CA03:	A9DCA7  	LDA #$A7DC
81CA06:	9D1200  	STA $0012,x
81CA09:	E220    	SEP #$20
81CA0B:	FE0200  	INC $0002,x
81CA0E:	80D5    	BRA $C9E5

81CA10:	AE0007  	LDX $0700
81CA13:	BD0300  	LDA $0003,x
81CA16:	3A      	DEC A
81CA17:	9D0300  	STA $0003,x
81CA1A:	C9A0    	CMP #$A0
81CA1C:	D007    	BNE $CA25
81CA1E:	A901    	LDA #$01
81CA20:	9D0800  	STA $0008,x
81CA23:	8016    	BRA $CA3B
81CA25:	C990    	CMP #$90
81CA27:	D012    	BNE $CA3B
81CA29:	A0E2A7  	LDY #$A7E2
81CA2C:	A902    	LDA #$02
81CA2E:	2086CB  	JSR $CB86
81CA31:	C220    	REP #$20
81CA33:	A98006  	LDA #$0680
81CA36:	9D1E00  	STA $001E,x
81CA39:	E220    	SEP #$20
81CA3B:	80A8    	BRA $C9E5

81CA3D:	AE0007  	LDX $0700
81CA40:	C220    	REP #$20
81CA42:	DE1E00  	DEC $001E,x
81CA45:	E220    	SEP #$20
81CA47:	D00D    	BNE $CA56
81CA49:	A0DCA7  	LDY #$A7DC
81CA4C:	A902    	LDA #$02
81CA4E:	2086CB  	JSR $CB86
81CA51:	A920    	LDA #$20
81CA53:	9D1E00  	STA $001E,x
81CA56:	808D    	BRA $C9E5

81CA58:	AE0007  	LDX $0700
81CA5B:	DE1E00  	DEC $001E,x
81CA5E:	D00D    	BNE $CA6D
81CA60:	A0E8A7  	LDY #$A7E8
81CA63:	A902    	LDA #$02
81CA65:	2086CB  	JSR $CB86
81CA68:	A920    	LDA #$20
81CA6A:	9D1E00  	STA $001E,x
81CA6D:	4CE5C9  	JMP $C9E5

81CA70:	AE0007  	LDX $0700
81CA73:	DE1E00  	DEC $001E,x
81CA76:	D00D    	BNE $CA85
81CA78:	A0EEA7  	LDY #$A7EE
81CA7B:	A902    	LDA #$02
81CA7D:	2086CB  	JSR $CB86
81CA80:	A920    	LDA #$20
81CA82:	9D1E00  	STA $001E,x
81CA85:	4CE5C9  	JMP $C9E5

81CA88:	AE0007  	LDX $0700
81CA8B:	DE1E00  	DEC $001E,x
81CA8E:	D00D    	BNE $CA9D
81CA90:	A0F4A7  	LDY #$A7F4
81CA93:	A902    	LDA #$02
81CA95:	2086CB  	JSR $CB86
81CA98:	A920    	LDA #$20
81CA9A:	9D1E00  	STA $001E,x
81CA9D:	4CE5C9  	JMP $C9E5

81CAA0:	AE0007  	LDX $0700
81CAA3:	DE1E00  	DEC $001E,x
81CAA6:	D00D    	BNE $CAB5
81CAA8:	A0E2A7  	LDY #$A7E2
81CAAB:	A902    	LDA #$02
81CAAD:	2086CB  	JSR $CB86
81CAB0:	A990    	LDA #$90
81CAB2:	9D1E00  	STA $001E,x
81CAB5:	4CE5C9  	JMP $C9E5

81CAB8:	AE0007  	LDX $0700
81CABB:	DE1E00  	DEC $001E,x
81CABE:	D00C    	BNE $CACC
81CAC0:	A0A0CB  	LDY #$CBA0
81CAC3:	8C2607  	STY $0726
81CAC6:	9C2807  	STZ $0728
81CAC9:	FE0200  	INC $0002,x
81CACC:	4CE5C9  	JMP $C9E5

81CACF:	4CE5C9  	JMP $C9E5

81CAD2:	AE0007  	LDX $0700
81CAD5:	A018A8  	LDY #$A818
81CAD8:	A902    	LDA #$02
81CADA:	2086CB  	JSR $CB86
81CADD:	4CE5C9  	JMP $C9E5

81CAE0:	AE0007  	LDX $0700
81CAE3:	C220    	REP #$20
81CAE5:	A90002  	LDA #$0200
81CAE8:	9D0900  	STA $0009,x
81CAEB:	A90028  	LDA #$2800
81CAEE:	9D0B00  	STA $000B,x
81CAF1:	A931AD  	LDA #$AD31
81CAF4:	9D1400  	STA $0014,x
81CAF7:	E220    	SEP #$20
81CAF9:	FE0200  	INC $0002,x
81CAFC:	4CE5C9  	JMP $C9E5

81CAFF:	20538B  	JSR $8B53
81CB02:	BD0B00  	LDA $000B,x
81CB05:	1A      	INC A
81CB06:	DD0C00  	CMP $000C,x
81CB09:	D027    	BNE $CB32
81CB0B:	C220    	REP #$20
81CB0D:	A90000  	LDA #$0000
81CB10:	8D2607  	STA $0726
81CB13:	A98000  	LDA #$0080
81CB16:	9D0300  	STA $0003,x
81CB19:	A90001  	LDA #$0100
81CB1C:	9D0700  	STA $0007,x
81CB1F:	A91EA8  	LDA #$A81E
81CB22:	9D1200  	STA $0012,x
81CB25:	E220    	SEP #$20
81CB27:	A900    	LDA #$00
81CB29:	9D1E00  	STA $001E,x
81CB2C:	9E0500  	STZ $0005,x
81CB2F:	FE0200  	INC $0002,x
81CB32:	4CE5C9  	JMP $C9E5

81CB35:	AE0007  	LDX $0700
81CB38:	DE1E00  	DEC $001E,x
81CB3B:	D031    	BNE $CB6E
81CB3D:	A901    	LDA #$01
81CB3F:	9D1E00  	STA $001E,x
81CB42:	BD0400  	LDA $0004,x
81CB45:	18      	CLC 
81CB46:	6904    	ADC #$04
81CB48:	9D0400  	STA $0004,x
81CB4B:	C968    	CMP #$68
81CB4D:	D01F    	BNE $CB6E
81CB4F:	C220    	REP #$20
81CB51:	A90001  	LDA #$0100
81CB54:	9D0900  	STA $0009,x
81CB57:	A90008  	LDA #$0800
81CB5A:	9D0B00  	STA $000B,x
81CB5D:	A983AD  	LDA #$AD83
81CB60:	9D1400  	STA $0014,x
81CB63:	E220    	SEP #$20
81CB65:	A906    	LDA #$06
81CB67:	22CB8382	JSR $8283CB
81CB6B:	FE0200  	INC $0002,x
81CB6E:	4CE5C9  	JMP $C9E5

81CB71:	20538B  	JSR $8B53
81CB74:	BD0B00  	LDA $000B,x
81CB77:	1A      	INC A
81CB78:	DD0C00  	CMP $000C,x
81CB7B:	D003    	BNE $CB80
81CB7D:	FE0200  	INC $0002,x
81CB80:	4CE5C9  	JMP $C9E5

81CB83:	4CE5C9  	JMP $C9E5
81CB86:	AE0007  	LDX $0700
81CB89:	9D0800  	STA $0008,x
81CB8C:	A9FF    	LDA #$FF
81CB8E:	9D0700  	STA $0007,x
81CB91:	C220    	REP #$20
81CB93:	98      	TYA 
81CB94:	9D1200  	STA $0012,x
81CB97:	E220    	SEP #$20
81CB99:	9E0500  	STZ $0005,x
81CB9C:	FE0200  	INC $0002,x
81CB9F:	60      	RTS

81CBA0:	AE0007  	LDX $0700
81CBA3:	A900    	LDA #$00
81CBA5:	EB      	XBA 
81CBA6:	BD0200  	LDA $0002,x
81CBA9:	0A      	ASL
81CBAA:	AA      	TAX 
81CBAB:	7CAECB  	JMP ($CBAE,x)
81CBAE:
	dw $CBC1, $CBEB, $CC11, $CC3B
	dw $CC7A, $CC91, $CCA9, $CCC8
	dw $CCDA
81CBC0:
	RTS
	
81CBC1:	AE0007  	LDX $0700
81CBC4:	9E0500  	STZ $0005,x
81CBC7:	C220    	REP #$20
81CBC9:	A9A027  	LDA #$27A0
81CBCC:	9D0300  	STA $0003,x
81CBCF:	A90001  	LDA #$0100
81CBD2:	9D0700  	STA $0007,x
81CBD5:	9E0D00  	STZ $000D,x
81CBD8:	A90000  	LDA #$0000
81CBDB:	9D1000  	STA $0010,x
81CBDE:	A9FAA7  	LDA #$A7FA
81CBE1:	9D1200  	STA $0012,x
81CBE4:	E220    	SEP #$20
81CBE6:	FE0200  	INC $0002,x
81CBE9:	80D5    	BRA $CBC0

81CBEB:	AE0007  	LDX $0700
81CBEE:	BD0400  	LDA $0004,x
81CBF1:	18      	CLC 
81CBF2:	6904    	ADC #$04
81CBF4:	9D0400  	STA $0004,x
81CBF7:	C987    	CMP #$87
81CBF9:	D013    	BNE $CC0E
81CBFB:	A906    	LDA #$06
81CBFD:	22CB8382	JSR $8283CB
81CC01:	A901    	LDA #$01
81CC03:	9D1E00  	STA $001E,x
81CC06:	A914    	LDA #$14
81CC08:	9D1F00  	STA $001F,x
81CC0B:	FE0200  	INC $0002,x
81CC0E:	4CC0CB  	JMP $CBC0

81CC11:	AE0007  	LDX $0700
81CC14:	DE1E00  	DEC $001E,x
81CC17:	1020    	BPL $CC39
81CC19:	A901    	LDA #$01
81CC1B:	9D1E00  	STA $001E,x
81CC1E:	BD0300  	LDA $0003,x
81CC21:	F004    	BEQ $CC27
81CC23:	A900    	LDA #$00
81CC25:	8002    	BRA $CC29
81CC27:	A9A0    	LDA #$A0
81CC29:	9D0300  	STA $0003,x
81CC2C:	DE1F00  	DEC $001F,x
81CC2F:	D008    	BNE $CC39
81CC31:	A0FDA7  	LDY #$A7FD
81CC34:	A905    	LDA #$05
81CC36:	2086CB  	JSR $CB86
81CC39:	8085    	BRA $CBC0

81CC3B:	AE0007  	LDX $0700
81CC3E:	BD0700  	LDA $0007,x
81CC41:	1A      	INC A
81CC42:	DD0800  	CMP $0008,x
81CC45:	D030    	BNE $CC77
81CC47:	A997    	LDA #$97
81CC49:	9D0400  	STA $0004,x
81CC4C:	C220    	REP #$20
81CC4E:	A90002  	LDA #$0200
81CC51:	9D0700  	STA $0007,x
81CC54:	9E0D00  	STZ $000D,x
81CC57:	A912A8  	LDA #$A812
81CC5A:	9D1200  	STA $0012,x
81CC5D:	A90002  	LDA #$0200
81CC60:	9D0900  	STA $0009,x
81CC63:	A90048  	LDA #$4800
81CC66:	9D0B00  	STA $000B,x
81CC69:	A99FAC  	LDA #$AC9F
81CC6C:	9D1400  	STA $0014,x
81CC6F:	E220    	SEP #$20
81CC71:	9E0500  	STZ $0005,x
81CC74:	FE0200  	INC $0002,x
81CC77:	4CC0CB  	JMP $CBC0

81CC7A:	20538B  	JSR $8B53
81CC7D:	BD0B00  	LDA $000B,x
81CC80:	1A      	INC A
81CC81:	DD0C00  	CMP $000C,x
81CC84:	D008    	BNE $CC8E
81CC86:	A920    	LDA #$20
81CC88:	9D1E00  	STA $001E,x
81CC8B:	FE0200  	INC $0002,x
81CC8E:	4CC0CB  	JMP $CBC0

81CC91:	AE0007  	LDX $0700
81CC94:	DE1E00  	DEC $001E,x
81CC97:	D00D    	BNE $CCA6
81CC99:	A012A8  	LDY #$A812
81CC9C:	A902    	LDA #$02
81CC9E:	2086CB  	JSR $CB86
81CCA1:	A909    	LDA #$09
81CCA3:	8D0807  	STA $0708
81CCA6:	4CC0CB  	JMP $CBC0

81CCA9:	AE0007  	LDX $0700
81CCAC:	C220    	REP #$20
81CCAE:	A90002  	LDA #$0200
81CCB1:	9D0900  	STA $0009,x
81CCB4:	A90028  	LDA #$2800
81CCB7:	9D0B00  	STA $000B,x
81CCBA:	A931AD  	LDA #$AD31
81CCBD:	9D1400  	STA $0014,x
81CCC0:	E220    	SEP #$20
81CCC2:	FE0200  	INC $0002,x
81CCC5:	4CC0CB  	JMP $CBC0

81CCC8:	20538B  	JSR $8B53
81CCCB:	BD0B00  	LDA $000B,x
81CCCE:	1A      	INC A
81CCCF:	DD0C00  	CMP $000C,x
81CCD2:	D003    	BNE $CCD7
81CCD4:	FE0200  	INC $0002,x
81CCD7:	4CC0CB  	JMP $CBC0

81CCDA:	4CC0CB  	JMP $CBC0

81CCDD:	A900    	LDA #$00
81CCDF:	EB      	XBA 
81CCE0:	AD2208  	LDA $0822
81CCE3:	0A      	ASL
81CCE4:	A8      	TAY 
81CCE5:	8B      	PHB 
81CCE6:	4B      	PHK 
81CCE7:	AB      	PLB 
81CCE8:	BE04CD  	LDX $CD04,Y
81CCEB:	8E0208  	STX $0802
81CCEE:	A20605  	LDX #$0506
81CCF1:	8E0408  	STX $0804
81CCF4:	A20000  	LDX #$0000
81CCF7:	8E0008  	STX $0800
81CCFA:	A903    	LDA #$03
81CCFC:	8D0608  	STA $0806
81CCFF:	9C0808  	STZ $0808
81CD02:	AB      	PLB 
81CD03:	60      	RTS

81CD04:
	dw $CD10, $CD5B, $CD82, $CDE9
	dw $CE30, $CE7C
	
81CFD5:	8B      	PHB 
81CFD6:	C220    	REP #$20
81CFD8:	A20015  	LDX #$1500
81CFDB:	A00115  	LDY #$1501
81CFDE:	9C0015  	STZ $1500
81CFE1:	A97E01  	LDA #$017E
81CFE4:	540000  	MVN $00,$00
81CFE7:	E220    	SEP #$20
81CFE9:	AB      	PLB 
81CFEA:	60      	RTS

#######SETTEI###########
81CFEB:	8B      	PHB 
81CFEC:	A980    	LDA #$80
81CFEE:	8D0021  	STA $2100
81CFF1:	A21C9D  	LDX #$9D1C
81CFF4:	22318200	JSR $008231		set BG1 
81CFF8:	A913    	LDA #$13
81CFFA:	8F2C2100	STA $00212C
81CFFE:	A982    	LDA #$82
81D000:	8F312100	STA $002131
81D004:	226A8200	JSR $00826A	init pointer
81D008:	20D5D0  	JSR $D0D5	dma kana set
81D00B:	2038D1  	JSR $D138	dma bg1 tilemap
81D00E:	2006D2  	JSR $D206	dma dragon sprite set
81D011:	2053D5  	JSR $D553
81D014:	A265A3  	LDX #$A365
81D017:	22928200	JSR $008292
81D01B:	A900    	LDA #$00
81D01D:	8D0021  	STA $2100
81D020:	9CF00F  	STZ $0FF0
81D023:	9CF10F  	STZ $0FF1
81D026:	9CFC0F  	STZ $0FFC
81D029:	9CFD0F  	STZ $0FFD
81D02C:	9CFE0F  	STZ $0FFE
81D02F:	A901    	LDA #$01
81D031:	8DFF0F  	STA $0FFF
81D034:	A903    	LDA #$03
81D036:	8D4D00  	STA $004D
81D039:	9CDC06  	STZ $06DC
81D03C:	9C4100  	STZ $0041
81D03F:	AD4100  	LDA $0041
81D042:	F0FB    	BEQ $D03F
81D044:	204FD2  	JSR $D24F
81D047:	20D7D1  	JSR $D1D7
81D04A:	2075D3  	JSR $D375
81D04D:	2098D5  	JSR $D598
81D050:	22A58382	JSR $8283A5
81D054:	229D8482	JSR $82849D
81D058:	A900    	LDA #$00
81D05A:	EB      	XBA 
81D05B:	ADDC06  	LDA $06DC
81D05E:	0A      	ASL
81D05F:	AA      	TAX 
81D060:	7C63D0  	JMP ($D063,x)
81D063:	6B      	RTL

###########SETTEI#############
81D0D5:	8B      	PHB 
81D0D6:	F40000  	PEA $0000
81D0D9:	AB      	PLB 
81D0DA:	AB      	PLB 
81D0DB:	A2A989  	LDX #$89A9
81D0DE:	A905    	LDA #$05
81D0E0:	8EDD06  	STX $06DD
81D0E3:	8DDF06  	STA $06DF
81D0E6:	A20080  	LDX #$8000
81D0E9:	A97E    	LDA #$7E
81D0EB:	8EE006  	STX $06E0
81D0EE:	8DE206  	STA $06E2
81D0F1:	22F68182	JSR $8281F6	write chara set buffer
81D0F5:	A21EF9  	LDX #$F91E
81D0F8:	A905    	LDA #$05
81D0FA:	8EDD06  	STX $06DD
81D0FD:	8DDF06  	STA $06DF
81D100:	A200A0  	LDX #$A000
81D103:	A97E    	LDA #$7E
81D105:	8EE006  	STX $06E0
81D108:	8DE206  	STA $06E2
81D10B:	22F68182	JSR $8281F6
81D10F:	F40043  	PEA $4300
81D112:	2B      	PLD 
81D113:	A980    	LDA #$80
81D115:	8D1521  	STA $2115
81D118:	A20118  	LDX #$1801
81D11B:	8670    	STX $70
81D11D:	A20080  	LDX #$8000
81D120:	A97E    	LDA #$7E
81D122:	8672    	STX $72
81D124:	8574    	STA $74
81D126:	A20000  	LDX #$0000
81D129:	8E1621  	STX $2116
81D12C:	A20028  	LDX #$2800
81D12F:	8675    	STX $75
81D131:	A980    	LDA #$80
81D133:	8D0B42  	STA $420B  dma chara set
81D136:	AB      	PLB 
81D137:	60      	RTS

####DMA BG1 map SETTEI###########
81D138:	A21CFB  	LDX #$FB1C
81D13B:	A905    	LDA #$05
81D13D:	8EDD06  	STX $06DD
81D140:	8DDF06  	STA $06DF
81D143:	A20008  	LDX #$0800
81D146:	8EE006  	STX $06E0
81D149:	9CE206  	STZ $06E2
81D14C:	22F68182	JSR $8281F6
81D150:	8B      	PHB 
81D151:	4B      	PHK 
81D152:	AB      	PLB 
81D153:	C220    	REP #$20
81D155:	A20000  	LDX #$0000
81D158:	A00010  	LDY #$1000
81D15B:	A90400  	LDA #$0004
81D15E:	8D0000  	STA $0000
81D161:	A90400  	LDA #$0004
81D164:	8D0200  	STA $0002
81D167:	BDD3D1  	LDA $D1D3,x
81D16A:	29FF00  	AND #$00FF
81D16D:	090005  	ORA #$0500
81D170:	990000  	STA $0000,Y
81D173:	990800  	STA $0008,Y
81D176:	991000  	STA $0010,Y
81D179:	991800  	STA $0018,Y
81D17C:	992000  	STA $0020,Y
81D17F:	992800  	STA $0028,Y
81D182:	993000  	STA $0030,Y
81D185:	993800  	STA $0038,Y
81D188:	C8      	INY 
81D189:	C8      	INY 
81D18A:	1A      	INC A
81D18B:	CE0200  	DEC $0002
81D18E:	D0E0    	BNE $D170
81D190:	98      	TYA 
81D191:	18      	CLC 
81D192:	693800  	ADC #$0038
81D195:	A8      	TAY 
81D196:	E8      	INX 
81D197:	CE0000  	DEC $0000
81D19A:	D0C5    	BNE $D161
81D19C:	A20010  	LDX #$1000
81D19F:	A00011  	LDY #$1100
81D1A2:	A9FF06  	LDA #$06FF
81D1A5:	540000  	MVN $00,$00
81D1A8:	E220    	SEP #$20
81D1AA:	F40043  	PEA $4300
81D1AD:	2B      	PLD 
81D1AE:	A980    	LDA #$80
81D1B0:	8D1521  	STA $2115
81D1B3:	A20118  	LDX #$1801
81D1B6:	8670    	STX $70
81D1B8:	A20008  	LDX #$0800
81D1BB:	A900    	LDA #$00
81D1BD:	8672    	STX $72
81D1BF:	8574    	STA $74
81D1C1:	A20030  	LDX #$3000
81D1C4:	8E1621  	STX $2116
81D1C7:	A20010  	LDX #$1000
81D1CA:	8675    	STX $75
81D1CC:	A980    	LDA #$80
81D1CE:	8D0B42  	STA $420B
81D1D1:	AB      	PLB 
81D1D2:	60      	RTS

########SETTEI SHOSAI#############
81D257:	8B      	PHB 
81D258:	4B      	PHK 
81D259:	AB      	PLB 
81D25A:	A900    	LDA #$00
81D25C:	EB      	XBA 
81D25D:	AD8A07  	LDA $078A
81D260:	0A      	ASL
81D261:	AA      	TAX 
81D262:	BC4FD3  	LDY $D34F,x
81D265:	A2EC08  	LDX #$08EC
81D268:	A906    	LDA #$06
81D26A:	8D0000  	STA $0000
81D26D:	B90000  	LDA $0000,Y
81D270:	9D0000  	STA $0000,x
81D273:	9E0100  	STZ $0001,x
81D276:	C8      	INY 
81D277:	E8      	INX 
81D278:	E8      	INX 
81D279:	CE0000  	DEC $0000
81D27C:	D0EF    	BNE $D26D
81D27E:	AD8B07  	LDA $078B
81D281:	222D8382	JSR $82832D
81D285:	ADAF07  	LDA $07AF
81D288:	8DAC09  	STA $09AC
81D28B:	9CAD09  	STZ $09AD
81D28E:	AD8C07  	LDA $078C
81D291:	222D8382	JSR $82832D
81D295:	ADAF07  	LDA $07AF
81D298:	8D2C0A  	STA $0A2C
81D29B:	9C2D0A  	STZ $0A2D
81D29E:	AD8D07  	LDA $078D
81D2A1:	222D8382	JSR $82832D
81D2A5:	ADAE07  	LDA $07AE
81D2A8:	8DEC0A  	STA $0AEC
81D2AB:	9CED0A  	STZ $0AED
81D2AE:	ADAF07  	LDA $07AF
81D2B1:	8DEE0A  	STA $0AEE
81D2B4:	9CEF0A  	STZ $0AEF
81D2B7:	AD8E07  	LDA $078E
81D2BA:	222D8382	JSR $82832D
81D2BE:	ADAE07  	LDA $07AE
81D2C1:	8D6C0B  	STA $0B6C
81D2C4:	9C6D0B  	STZ $0B6D
81D2C7:	ADAF07  	LDA $07AF
81D2CA:	8D6E0B  	STA $0B6E
81D2CD:	9C6F0B  	STZ $0B6F
81D2D0:	A06FD3  	LDY #$D36F
81D2D3:	AD8F07  	LDA $078F
81D2D6:	F003    	BEQ $D2DB
81D2D8:	A072D3  	LDY #$D372
81D2DB:	A22C0C  	LDX #$0C2C
81D2DE:	A903    	LDA #$03
81D2E0:	8D0000  	STA $0000
81D2E3:	B90000  	LDA $0000,Y
81D2E6:	9D0000  	STA $0000,x
81D2E9:	9E0100  	STZ $0001,x
81D2EC:	C8      	INY 
81D2ED:	E8      	INX 
81D2EE:	E8      	INX 
81D2EF:	CE0000  	DEC $0000
81D2F2:	D0EF    	BNE $D2E3
81D2F4:	A06FD3  	LDY #$D36F
81D2F7:	AD9007  	LDA $0790
81D2FA:	F003    	BEQ $D2FF
81D2FC:	A072D3  	LDY #$D372
81D2FF:	A2AC0C  	LDX #$0CAC
81D302:	A903    	LDA #$03
81D304:	8D0000  	STA $0000
81D307:	B90000  	LDA $0000,Y
81D30A:	9D0000  	STA $0000,x
81D30D:	9E0100  	STZ $0001,x
81D310:	C8      	INY 
81D311:	E8      	INX 
81D312:	E8      	INX 
81D313:	CE0000  	DEC $0000
81D316:	D0EF    	BNE $D307
81D318:	AD9107  	LDA $0791
81D31B:	222D8382	JSR $82832D
81D31F:	ADAE07  	LDA $07AE
81D322:	8D6C0D  	STA $0D6C
81D325:	9C6D0D  	STZ $0D6D
81D328:	ADAF07  	LDA $07AF
81D32B:	8D6E0D  	STA $0D6E
81D32E:	9C6F0D  	STZ $0D6F
81D331:	AD9207  	LDA $0792
81D334:	222D8382	JSR $82832D
81D338:	ADAE07  	LDA $07AE
81D33B:	8DEC0D  	STA $0DEC
81D33E:	9CED0D  	STZ $0DED
81D341:	ADAF07  	LDA $07AF
81D344:	8DEE0D  	STA $0DEE
81D347:	9CEF0D  	STZ $0DEF
81D34A:	9CFF0F  	STZ $0FFF
81D34D:	AB      	PLB 
81D34E:	60      	RTS

//########WRITE PAUSE############
81D6F6:	8B      	PHB 
81D6F7:	F47F7F  	PEA $7F7F
81D6FA:	AB      	PLB 
81D6FB:	AB      	PLB 
81D6FC:	C220    	REP #$20
81D6FE:	A20041  	LDX #$4100
81D701:	A00141  	LDY #$4101
81D704:	9C0041  	STZ $4100
81D707:	A9FE07  	LDA #$07FE
81D70A:	547F7F  	MVN $7F,$7F
81D70D:	A2D802  	LDX #$02D8
81D710:	A92224  	LDA #$2422
81D713:	A00800  	LDY #$0008
81D716:	9D0041  	STA $4100,X
81D719:	18      	CLC 
81D71A:	691000  	ADC #$0010
81D71D:	9D4041  	STA $4140,X
81D720:	38      	SEC 
81D721:	E90F00  	SBC #$000F
81D724:	E8      	INX 
81D725:	E8      	INX 
81D726:	88      	DEY 
81D727:	D0ED    	BNE $D716
81D729:	F40000  	PEA $0000
81D72C:	AB      	PLB 
81D72D:	AB      	PLB 
81D72E:	A90008  	LDA #$0800
81D731:	A2003C  	LDX #$3C00
81D734:	A00041  	LDY #$4100
81D737:	8D6600  	STA $0066
81D73A:	8E6800  	STX $0068
81D73D:	8C6A00  	STY $006A
81D740:	A97F00  	LDA #$007F
81D743:	8D6C00  	STA $006C
81D746:	E220    	SEP #$20
81D748:	A901    	LDA #$01
81D74A:	8D4200  	STA $0042
81D74D:	AB      	PLB 
81D74E:	60      	RTS

########INTRO SETTEI#############
81D82F:	8B      	PHB 
81D830:	A980    	LDA #$80
81D832:	8D0021  	STA $2100
81D835:	A2CAA4  	LDX #$A4CA
81D838:	22318200	JSR $008231	ppu setting
81D83C:	226A8200	JSR $00826A	init oam table
81D840:	2045D9  	JSR $D945	dma bg2 tileset
81D843:	20A8D9  	JSR $D9A8	dma bg2 tilemap
81D846:	A239A5  	LDX #$A539
81D849:	22928200	JSR $008292	write color buffer
81D84D:	2029DC  	JSR $DC29			HDMA settei
81D850:	A907    	LDA #$07
81D852:	8D4D00  	STA $004D
81D855:	A9F6    	LDA #$F6
81D857:	22B88382	JSR $8283B8	sfx
81D85B:	A90D    	LDA #$0D
81D85D:	22648382	JSR $828364 bgm
81D861:	A900    	LDA #$00
81D863:	8D0021  	STA $2100
81D866:	9CF00F  	STZ $0FF0
81D869:	9CF10F  	STZ $0FF1
81D86C:	9C0908  	STZ $0809
81D86F:	9C0A08  	STZ $080A
81D872:	9C0B08  	STZ $080B
81D875:	9C2008  	STZ $0820
81D878:	9C2108  	STZ $0821
81D87B:	9C2208  	STZ $0822
81D87E:	9C2308  	STZ $0823
81D881:	9CDC06  	STZ $06DC
81D884:	9C4100  	STZ $0041
81D887:	AD4100  	LDA $0041
81D88A:	F0FB    	BEQ $D887		wait nmi
81D88C:	201BDA  	JSR $DA1B		dma bg2 tilemap
81D88F:	2084DC  	JSR $DC84	kumo yuki
81D892:	20ACDC  	JSR $DCAC	load 820: effect FD ankoku
81D895:	A900    	LDA #$00
81D897:	EB      	XBA 
81D898:	ADDC06  	LDA $06DC
81D89B:	0A      	ASL
81D89C:	AA      	TAX 
81D89D:	7CA0D8  	JMP ($D8A0,x)
81D8A0:
	dw $D8A8, $D8CC, $D90A, $D93B
	
######Fade in ##########
81D8A8:	CEF00F  	DEC $0FF0
81D8AB:	101C    	BPL $D8C9
81D8AD:	A903    	LDA #$03
81D8AF:	8DF00F  	STA $0FF0
81D8B2:	ADF10F  	LDA $0FF1
81D8B5:	1A      	INC A
81D8B6:	C910    	CMP #$10
81D8B8:	F009    	BEQ $D8C3
81D8BA:	8DF10F  	STA $0FF1
81D8BD:	8F002100	STA $002100
81D8C1:	8006    	BRA $D8C9
81D8C3:	2048DA  	JSR $DA48	write txt pos
81D8C6:	EEDC06  	INC $06DC
81D8C9:	4C84D8  	JMP $D884

####HOMBAN########
81D8CC:	229D8482	JSR $82849D	check pad
81D8D0:	200DB6  	JSR $B60D	write text tilemap
81D8D3:	B01F    	BCS $D8F4
81D8D5:	AD2200  	LDA $0022	pad
81D8D8:	0D2E00  	ORA $002E
81D8DB:	2980    	AND #$80
81D8DD:	F007    	BEQ $D8E6
81D8DF:	A901    	LDA #$01
81D8E1:	8D0808  	STA $0808	press A
81D8E4:	8021    	BRA $D907
81D8E6:	AD2300  	LDA $0023
81D8E9:	0D2F00  	ORA $002F
81D8EC:	2910    	AND #$10
81D8EE:	F017    	BEQ $D907
81D8F0:	A900    	LDA #$00		press start
81D8F2:	8002    	BRA $D8F6
81D8F4:	A980    	LDA #$80
81D8F6:	8DF00F  	STA $0FF0
81D8F9:	A90F    	LDA #$0F
81D8FB:	8DF10F  	STA $0FF1
81D8FE:	A9F5    	LDA #$F5
81D900:	22B88382	JSR $8283B8  sfx
81D904:	EEDC06  	INC $06DC
81D907:	4C84D8  	JMP $D884

####End text##########
81D90A:	200DB6  	JSR $B60D
81D90D:	CEF00F  	DEC $0FF0
81D910:	1026    	BPL $D938
81D912:	A902    	LDA #$02
81D914:	8DF00F  	STA $0FF0
81D917:	ADF10F  	LDA $0FF1
81D91A:	3A      	DEC A
81D91B:	3009    	BMI $D926
81D91D:	8DF10F  	STA $0FF1
81D920:	8F002100	STA $002100
81D924:	8012    	BRA $D938
81D926:	A9F6    	LDA #$F6
81D928:	22B88382	JSR $8283B8  sfx
81D92C:	A980    	LDA #$80
81D92E:	8F002100	STA $002100
81D932:	9C4D00  	STZ $004D
81D935:	EEDC06  	INC $06DC
81D938:	4C84D8  	JMP $D884

81D93B:	9C4100  	STZ $0041
81D93E:	A901    	LDA #$01
81D940:	8DB807  	STA $07B8
81D943:	AB      	PLB 
81D944:	6B      	RTL

#######DMA INTRO BG2 TILESET ##########
81D945:	8B      	PHB 
81D946:	F40000  	PEA $0000
81D949:	AB      	PLB 
81D94A:	AB      	PLB 
81D94B:	A2BAEF  	LDX #$EFBA
81D94E:	A91E    	LDA #$1E
81D950:	8EDD06  	STX $06DD
81D953:	8DDF06  	STA $06DF
81D956:	A20080  	LDX #$8000
81D959:	A97E    	LDA #$7E
81D95B:	8EE006  	STX $06E0
81D95E:	8DE206  	STA $06E2
81D961:	22F68182	JSR $8281F6		decomp gfx tileset
81D965:	A2A989  	LDX #$89A9
81D968:	A905    	LDA #$05
81D96A:	8EDD06  	STX $06DD
81D96D:	8DDF06  	STA $06DF
81D970:	A200C0  	LDX #$C000
81D973:	A97E    	LDA #$7E
81D975:	8EE006  	STX $06E0
81D978:	8DE206  	STA $06E2
81D97B:	22F68182	JSR $8281F6	decomp font
81D97F:	F40043  	PEA $4300
81D982:	2B      	PLD 
81D983:	A980    	LDA #$80
81D985:	8D1521  	STA $2115
81D988:	A20118  	LDX #$1801
81D98B:	8670    	STX $70
81D98D:	A20080  	LDX #$8000
81D990:	A97E    	LDA #$7E
81D992:	8672    	STX $72
81D994:	8574    	STA $74
81D996:	A20000  	LDX #$0000
81D999:	8E1621  	STX $2116
81D99C:	A20060  	LDX #$6000
81D99F:	8675    	STX $75
81D9A1:	A980    	LDA #$80
81D9A3:	8D0B42  	STA $420B
81D9A6:	AB      	PLB 
81D9A7:	60      	RTS

#######DMA INTRO BG2 TILEMAP ##########
81D9A8:	8B      	PHB 
81D9A9:	F40000  	PEA $0000
81D9AC:	AB      	PLB 
81D9AD:	AB      	PLB 
81D9AE:	A257DE  	LDX #$DE57
81D9B1:	A90D    	LDA #$0D
81D9B3:	8EDD06  	STX $06DD
81D9B6:	8DDF06  	STA $06DF
81D9B9:	A20080  	LDX #$8000
81D9BC:	A97E    	LDA #$7E
81D9BE:	8EE006  	STX $06E0
81D9C1:	8DE206  	STA $06E2
81D9C4:	22F68182	JSR $8281F6
81D9C8:	A267DF  	LDX #$DF67
81D9CB:	A90D    	LDA #$0D
81D9CD:	8EDD06  	STX $06DD
81D9D0:	8DDF06  	STA $06DF
81D9D3:	A20088  	LDX #$8800
81D9D6:	A97E    	LDA #$7E
81D9D8:	8EE006  	STX $06E0
81D9DB:	8DE206  	STA $06E2
81D9DE:	22F68182	JSR $8281F6
81D9E2:	C220    	REP #$20
81D9E4:	A20088  	LDX #$8800
81D9E7:	A00010  	LDY #$1000
81D9EA:	A9FF07  	LDA #$07FF
81D9ED:	54007E  	MVN $00,$7E
81D9F0:	E220    	SEP #$20
81D9F2:	F40043  	PEA $4300
81D9F5:	2B      	PLD 
81D9F6:	A980    	LDA #$80
81D9F8:	8D1521  	STA $2115
81D9FB:	A20118  	LDX #$1801
81D9FE:	8670    	STX $70
81DA00:	A20080  	LDX #$8000
81DA03:	A97E    	LDA #$7E
81DA05:	8672    	STX $72
81DA07:	8574    	STA $74
81DA09:	A20030  	LDX #$3000
81DA0C:	8E1621  	STX $2116
81DA0F:	A20010  	LDX #$1000
81DA12:	8675    	STX $75
81DA14:	A980    	LDA #$80
81DA16:	8D0B42  	STA $420B
81DA19:	AB      	PLB 
81DA1A:	60      	RTS

########DMA BG2 TXT TILEMAP#####
81DA1B:	8B      	PHB 
81DA1C:	F40000  	PEA $0000
81DA1F:	AB      	PLB 
81DA20:	AB      	PLB 
81DA21:	F40043  	PEA $4300
81DA24:	2B      	PLD 
81DA25:	A980    	LDA #$80
81DA27:	8D1521  	STA $2115
81DA2A:	A20118  	LDX #$1801
81DA2D:	8670    	STX $70
81DA2F:	A20010  	LDX #$1000
81DA32:	8672    	STX $72
81DA34:	6474    	STZ $74
81DA36:	A20034  	LDX #$3400
81DA39:	8E1621  	STX $2116
81DA3C:	A20008  	LDX #$0800
81DA3F:	8675    	STX $75
81DA41:	A980    	LDA #$80
81DA43:	8D0B42  	STA $420B
81DA46:	AB      	PLB 
81DA47:	60      	RTS

###Write initial txt pos ######
81DA48:	A263DA  	LDX #$DA63
81DA4B:	8E0208  	STX $0802
81DA4E:	A20605  	LDX #$0506
81DA51:	8E0408  	STX $0804
81DA54:	A20020  	LDX #$2000
81DA57:	8E0008  	STX $0800
81DA5A:	A903    	LDA #$03
81DA5C:	8D0608  	STA $0806
81DA5F:	9C0808  	STZ $0808
81DA62:	60      	RTS

#####TRANSFER COLOR, HDMA#######
81DC29:	8B      	PHB 
81DC2A:	C220    	REP #$20
81DC2C:	A25B9D  	LDX #$9D5B
81DC2F:	A01008  	LDY #$0810
81DC32:	A90900  	LDA #$0009
81DC35:	540000  	MVN $00,$00
81DC38:	A21BA6  	LDX #$A61B
81DC3B:	A03008  	LDY #$0830
81DC3E:	A90F00  	LDA #$000F
81DC41:	540000  	MVN $00,$00
81DC44:	A22BA6  	LDX #$A62B
81DC47:	A04008  	LDY #$0840
81DC4A:	A90C00  	LDA #$000C
81DC4D:	540000  	MVN $00,$00
81DC50:	E220    	SEP #$20
81DC52:	0B      	PHD 
81DC53:	F40043  	PEA $4300
81DC56:	2B      	PLD 
81DC57:	A20210  	LDX #$1002
81DC5A:	8600    	STX $00
81DC5C:	A21008  	LDX #$0810
81DC5F:	8602    	STX $02
81DC61:	6404    	STZ $04
81DC63:	6407    	STZ $07
81DC65:	A2020F  	LDX #$0F02
81DC68:	8610    	STX $10
81DC6A:	A23008  	LDX #$0830
81DC6D:	8612    	STX $12
81DC6F:	6414    	STZ $14
81DC71:	6417    	STZ $17
81DC73:	A2420D  	LDX #$0D42
81DC76:	8620    	STX $20
81DC78:	A24008  	LDX #$0840
81DC7B:	8622    	STX $22
81DC7D:	6424    	STZ $24
81DC7F:	6427    	STZ $27
81DC81:	2B      	PLD 
81DC82:	AB      	PLB 
81DC83:	60      	RTS

#######Kumoyuki##########
81DC84:	CE0908  	DEC $0809
81DC87:	1008    	BPL $DC91
81DC89:	A901    	LDA #$01
81DC8B:	8D0908  	STA $0809
81DC8E:	CE3408  	DEC $0834
81DC91:	CE0A08  	DEC $080A
81DC94:	1008    	BPL $DC9E
81DC96:	A903    	LDA #$03
81DC98:	8D0A08  	STA $080A
81DC9B:	CE3708  	DEC $0837
81DC9E:	CE0B08  	DEC $080B
81DCA1:	1008    	BPL $DCAB
81DCA3:	A905    	LDA #$05
81DCA5:	8D0B08  	STA $080B
81DCA8:	CE3A08  	DEC $083A
81DCAB:	60      	RTS

########ANKOKU#########
81DCAC:	A900    	LDA #$00
81DCAE:	EB      	XBA 
81DCAF:	AD2008  	LDA $0820
81DCB2:	0A      	ASL
81DCB3:	AA      	TAX 
81DCB4:	7CB7DC  	JMP ($DCB7,x)
81DCB7:
	dw $DCBF, $DCC3, $DD1C, $DD33
81DCBF:	2039DD  	JSR $DD39
81DCC2:	60      	RTS
 
81DCC3:	2039DD  	JSR $DD39
81DCC6:	CE2108  	DEC $0821
81DCC9:	104E    	BPL $DD19
81DCCB:	A902    	LDA #$02
81DCCD:	8D2108  	STA $0821
81DCD0:	A2DBA5  	LDX #$A5DB
81DCD3:	A0AE00  	LDY #$00AE
81DCD6:	8EFC06  	STX $06FC
81DCD9:	8CFE06  	STY $06FE
81DCDC:	22718282	JSR $828271
81DCE0:	9005    	BCC $DCE7
81DCE2:	A901    	LDA #$01
81DCE4:	0C2208  	TSB $0822
81DCE7:	A2FBA5  	LDX #$A5FB
81DCEA:	A0CE00  	LDY #$00CE
81DCED:	8EFC06  	STX $06FC
81DCF0:	8CFE06  	STY $06FE
81DCF3:	22718282	JSR $828271
81DCF7:	9005    	BCC $DCFE
81DCF9:	A902    	LDA #$02
81DCFB:	0C2208  	TSB $0822
81DCFE:	AD2208  	LDA $0822
81DD01:	C903    	CMP #$03
81DD03:	D014    	BNE $DD19
81DD05:	A2BBA5  	LDX #$A5BB
81DD08:	A0EE00  	LDY #$00EE
81DD0B:	8EFC06  	STX $06FC
81DD0E:	8CFE06  	STY $06FE
81DD11:	A920    	LDA #$20
81DD13:	8D2108  	STA $0821
81DD16:	EE2008  	INC $0820
81DD19:	4CC2DC  	JMP $DCC2

81DD1C:	2039DD  	JSR $DD39
81DD1F:	CE2108  	DEC $0821
81DD22:	100E    	BPL $DD32
81DD24:	A904    	LDA #$04
81DD26:	8D2108  	STA $0821
81DD29:	22718282	JSR $828271
81DD2D:	9003    	BCC $DD32
81DD2F:	EE2008  	INC $0820
81DD32:	60      	RTS
 
81DD33:	2039DD  	JSR $DD39
81DD36:	4CC2DC  	JMP $DCC2
81DD39:	CE2308  	DEC $0823
81DD3C:	101C    	BPL $DD5A
81DD3E:	A901    	LDA #$01
81DD40:	8D2308  	STA $0823
81DD43:	C220    	REP #$20
81DD45:	AD4408  	LDA $0844
81DD48:	3A      	DEC A
81DD49:	3A      	DEC A
81DD4A:	C938A6  	CMP #$A638
81DD4D:	B003    	BCS $DD52
81DD4F:	A97EA6  	LDA #$A67E
81DD52:	8D4408  	STA $0844
81DD55:	8D4708  	STA $0847
81DD58:	E220    	SEP #$20
81DD5A:	60      	RTS

######HIMITSU#########
81DD98:	A900    	LDA #$00
81DD9A:	8D0021  	STA $2100
81DD9D:	9CF00F  	STZ $0FF0
81DDA0:	9CF10F  	STZ $0FF1
81DDA3:	9C2008  	STZ $0820
81DDA6:	A901    	LDA #$01
81DDA8:	8D4D00  	STA $004D
81DDAB:	9CDC06  	STZ $06DC
81DDAE:	9C4100  	STZ $0041
81DDB1:	AD4100  	LDA $0041
81DDB4:	F0FB    	BEQ $DDB1
81DDB6:	20EEDE  	JSR $DEEE	dma bg2map
81DDB9:	205EE1  	JSR $E15E
81DDBC:	A900    	LDA #$00
81DDBE:	EB      	XBA 
81DDBF:	ADDC06  	LDA $06DC
81DDC2:	0A      	ASL
81DDC3:	AA      	TAX 
81DDC4:	7CC7DD  	JMP ($DDC7,x)
81DDC7:
	dw $DDD1, $DDF5, $DE06, $DE30
	dw $DE5E
81DDD1:	CEF00F  	DEC $0FF0
81DDD4:	101C    	BPL $DDF2
81DDD6:	A903    	LDA #$03
81DDD8:	8DF00F  	STA $0FF0
81DDDB:	ADF10F  	LDA $0FF1
81DDDE:	1A      	INC A
81DDDF:	C910    	CMP #$10
81DDE1:	F009    	BEQ $DDEC
81DDE3:	8DF10F  	STA $0FF1
81DDE6:	8F002100	STA $002100
81DDEA:	8006    	BRA $DDF2
81DDEC:	201DDF  	JSR $DF1D
81DDEF:	EEDC06  	INC $06DC
81DDF2:	4CAEDD  	JMP $DDAE

81DDF5:	200DB6  	JSR $B60D
81DDF8:	9009    	BCC $DE03
81DDFA:	9C2200  	STZ $0022
81DDFD:	9C2300  	STZ $0023
81DE00:	EEDC06  	INC $06DC
81DE03:	4CAEDD  	JMP $DDAE

81DE06:	229D8482	JSR $82849D
81DE0A:	AD2200  	LDA $0022
81DE0D:	2980    	AND #$80
81DE0F:	8D0000  	STA $0000
81DE12:	AD2300  	LDA $0023
81DE15:	2910    	AND #$10
81DE17:	0D0000  	ORA $0000
81DE1A:	F011    	BEQ $DE2D
81DE1C:	9CF00F  	STZ $0FF0
81DE1F:	A90F    	LDA #$0F
81DE21:	8DF10F  	STA $0FF1
81DE24:	A9F5    	LDA #$F5
81DE26:	22B88382	JSR $8283B8
81DE2A:	EEDC06  	INC $06DC
81DE2D:	4CAEDD  	JMP $DDAE

81DE30:	CEF00F  	DEC $0FF0
81DE33:	1026    	BPL $DE5B
81DE35:	A902    	LDA #$02
81DE37:	8DF00F  	STA $0FF0
81DE3A:	ADF10F  	LDA $0FF1
81DE3D:	3A      	DEC A
81DE3E:	3009    	BMI $DE49
81DE40:	8DF10F  	STA $0FF1
81DE43:	8F002100	STA $002100
81DE47:	8012    	BRA $DE5B
81DE49:	A9F6    	LDA #$F6
81DE4B:	22B88382	JSR $8283B8
81DE4F:	A980    	LDA #$80
81DE51:	8F002100	STA $002100
81DE55:	9C4D00  	STZ $004D
81DE58:	EEDC06  	INC $06DC
81DE5B:	4CAEDD  	JMP $DDAE

81DE5E:	9C4100  	STZ $0041
81DE61:	9C2200  	STZ $0022
81DE64:	9C2300  	STZ $0023
81DE67:	AB      	PLB 
81DE68:	6B      	RTL

####DMA HIMITSU BG2 MAP######
81DEEE:	8B      	PHB 
81DEEF:	F40000  	PEA $0000
81DEF2:	AB      	PLB 
81DEF3:	AB      	PLB 
81DEF4:	F40043  	PEA $4300
81DEF7:	2B      	PLD 
81DEF8:	A980    	LDA #$80
81DEFA:	8D1521  	STA $2115
81DEFD:	A20118  	LDX #$1801
81DF00:	8670    	STX $70
81DF02:	A20010  	LDX #$1000
81DF05:	A900    	LDA #$00
81DF07:	8672    	STX $72
81DF09:	8574    	STA $74
81DF0B:	A20034  	LDX #$3400
81DF0E:	8E1621  	STX $2116
81DF11:	A20008  	LDX #$0800
81DF14:	8675    	STX $75
81DF16:	A980    	LDA #$80
81DF18:	8D0B42  	STA $420B
81DF1B:	AB      	PLB 
81DF1C:	60      	RTS

#####HIMITSU TEXT POS#######
81DF1D:	A900    	LDA #$00
81DF1F:	EB      	XBA 
81DF20:	AD8A07  	LDA $078A
81DF23:	2903    	AND #$03
81DF25:	0A      	ASL
81DF26:	A8      	TAY 
81DF27:	8B      	PHB 
81DF28:	4B      	PHK 
81DF29:	AB      	PLB 
81DF2A:	BE46DF  	LDX $DF46,Y
81DF2D:	AB      	PLB 
81DF2E:	8E0208  	STX $0802
81DF31:	A20605  	LDX #$0506
81DF34:	8E0408  	STX $0804
81DF37:	A20020  	LDX #$2000
81DF3A:	8E0008  	STX $0800
81DF3D:	A903    	LDA #$03
81DF3F:	8D0608  	STA $0806
81DF42:	9C0808  	STZ $0808
81DF45:	60      	RTS

#######HIMITSU KUCHI PAKU#####
81E15E:	8B      	PHB 
81E15F:	F40000  	PEA $0000
81E162:	AB      	PLB 
81E163:	AB      	PLB 
81E164:	C220    	REP #$20
81E166:	A29807  	LDX #$0798
81E169:	A90400  	LDA #$0004
81E16C:	8D0000  	STA $0000
81E16F:	BD0000  	LDA $0000,x
81E172:	F022    	BEQ $E196
81E174:	DE0200  	DEC $0002,x
81E177:	1013    	BPL $E18C
81E179:	BD0400  	LDA $0004,x
81E17C:	29FF00  	AND #$00FF
81E17F:	0A      	ASL
81E180:	0A      	ASL
81E181:	0A      	ASL
81E182:	18      	CLC 
81E183:	7D0000  	ADC $0000,x
81E186:	A8      	TAY 
81E187:	209AE1  	JSR $E19A
81E18A:	B0ED    	BCS $E179
81E18C:	E8      	INX 
81E18D:	E8      	INX 
81E18E:	E8      	INX 
81E18F:	E8      	INX 
81E190:	E8      	INX 
81E191:	CE0000  	DEC $0000
81E194:	D0D9    	BNE $E16F
81E196:	E220    	SEP #$20
81E198:	AB      	PLB 
81E199:	60      	RTS

81E19A:	B90000  	LDA $0000,Y
81E19D:	C900FB  	CMP #$FB00
81E1A0:	9056    	BCC $E1F8
81E1A2:	C900FC  	CMP #$FC00
81E1A5:	B00A    	BCS $E1B1
81E1A7:	200AE2  	JSR $E20A
81E1AA:	E220    	SEP #$20
81E1AC:	FE0400  	INC $0004,x
81E1AF:	8043    	BRA $E1F4
81E1B1:	C900FD  	CMP #$FD00
81E1B4:	B009    	BCS $E1BF
81E1B6:	22098382	JSR $828309
81E1BA:	29FF01  	AND #$01FF
81E1BD:	800C    	BRA $E1CB
81E1BF:	C900FE  	CMP #$FE00
81E1C2:	B016    	BCS $E1DA
81E1C4:	22098382	JSR $828309
81E1C8:	29FF00  	AND #$00FF
81E1CB:	8D0200  	STA $0002
81E1CE:	B90000  	LDA $0000,Y
81E1D1:	29FF00  	AND #$00FF
81E1D4:	18      	CLC 
81E1D5:	6D0200  	ADC $0002
81E1D8:	8021    	BRA $E1FB
81E1DA:	C900FF  	CMP #$FF00
81E1DD:	E220    	SEP #$20
81E1DF:	B00D    	BCS $E1EE
81E1E1:	22098382	JSR $828309
81E1E5:	2901    	AND #$01
81E1E7:	D005    	BNE $E1EE
81E1E9:	FE0400  	INC $0004,x
81E1EC:	8006    	BRA $E1F4
81E1EE:	B90000  	LDA $0000,Y
81E1F1:	9D0400  	STA $0004,x
81E1F4:	C220    	REP #$20
81E1F6:	38      	SEC 
81E1F7:	60      	RTS

81E1F8:	B90000  	LDA $0000,Y
81E1FB:	9D0200  	STA $0002,x
81E1FE:	200AE2  	JSR $E20A
81E201:	E220    	SEP #$20
81E203:	FE0400  	INC $0004,x
81E206:	C220    	REP #$20
81E208:	18      	CLC 
81E209:	60      	RTS

81E20A:	DA      	PHX 
81E20B:	BE0400  	LDX $0004,Y
81E20E:	B90200  	LDA $0002,Y
81E211:	8D0200  	STA $0002
81E214:	B90700  	LDA $0007,Y
81E217:	29FF00  	AND #$00FF
81E21A:	8D0400  	STA $0004
81E21D:	B90600  	LDA $0006,Y
81E220:	29FF00  	AND #$00FF
81E223:	8D0600  	STA $0006
81E226:	8B      	PHB 
81E227:	F47E7E  	PEA $7E7E
81E22A:	AB      	PLB 
81E22B:	AB      	PLB 
81E22C:	DA      	PHX 
81E22D:	AD0600  	LDA $0006
81E230:	8D0800  	STA $0008
81E233:	AD0200  	LDA $0002
81E236:	8D0A00  	STA $000A
81E239:	BD0010  	LDA $1000,x
81E23C:	2900FC  	AND #$FC00
81E23F:	0D0A00  	ORA $000A
81E242:	9D0010  	STA $1000,x
81E245:	E8      	INX 
81E246:	E8      	INX 
81E247:	EE0A00  	INC $000A
81E24A:	CE0800  	DEC $0008
81E24D:	D0EA    	BNE $E239
81E24F:	FA      	PLX 
81E250:	8A      	TXA 
81E251:	18      	CLC 
81E252:	694000  	ADC #$0040
81E255:	AA      	TAX 
81E256:	AD0200  	LDA $0002
81E259:	18      	CLC 
81E25A:	691000  	ADC #$0010
81E25D:	8D0200  	STA $0002
81E260:	CE0400  	DEC $0004
81E263:	D0C7    	BNE $E22C
81E265:	AB      	PLB 
81E266:	FA      	PLX 
81E267:	60      	RTS

8281F6:	8B      	PHB 
8281F7:	AEDD06  	LDX $06DD
8281FA:	ACE006  	LDY $06E0
8281FD:	ADDF06  	LDA $06DF
828200:	48      	PHA 
828201:	AB      	PLB 
828202:	C220    	REP #$20
828204:	F4E006  	PEA $06E0
828207:	2B      	PLD 
828208:	BD0000  	LDA $0000,x
82820B:	18      	CLC 
82820C:	6DE006  	ADC $06E0
82820F:	8D0000  	STA $0000
828212:	9CE006  	STZ $06E0
828215:	E220    	SEP #$20
828217:	E8      	INX 
828218:	E8      	INX 
828219:	BD0000  	LDA $0000,x
82821C:	8D0200  	STA $0002
82821F:	A908    	LDA #$08
828221:	8D0300  	STA $0003
828224:	E8      	INX 
828225:	0E0200  	ASL $0002
828228:	B009    	BCS $8233
82822A:	BD0000  	LDA $0000,x
82822D:	9700    	STA [$00],Y
82822F:	E8      	INX 
828230:	C8      	INY 
828231:	8030    	BRA $8263
828233:	BD0100  	LDA $0001,x
828236:	8D0400  	STA $0004
828239:	A9FF    	LDA #$FF
82823B:	EB      	XBA 
82823C:	BD0000  	LDA $0000,x
82823F:	E8      	INX 
828240:	E8      	INX 
828241:	C220    	REP #$20
828243:	8D0600  	STA $0006
828246:	DA      	PHX 
828247:	98      	TYA 
828248:	18      	CLC 
828249:	6D0600  	ADC $0006
82824C:	AA      	TAX 
82824D:	E220    	SEP #$20
82824F:	ADE206  	LDA $06E2
828252:	8B      	PHB 
828253:	48      	PHA 
828254:	AB      	PLB 
828255:	BD0000  	LDA $0000,x
828258:	9700    	STA [$00],Y
82825A:	E8      	INX 
82825B:	C8      	INY 
82825C:	CE0400  	DEC $0004
82825F:	D0F4    	BNE $8255
828261:	AB      	PLB 
828262:	FA      	PLX 
828263:	CC0000  	CPY $0000
828266:	F007    	BEQ $826F
828268:	CE0300  	DEC $0003
82826B:	D0B8    	BNE $8225
82826D:	80AA    	BRA $8219
82826F:	AB      	PLB 
828270:	6B      	RTL

828271:	C220    	REP #$20		fade color
828273:	AEFC06  	LDX $06FC
828276:	ACFE06  	LDY $06FE
828279:	A90100  	LDA #$0001
82827C:	8D0000  	STA $0000
82827F:	A91000  	LDA #$0010
828282:	8D0200  	STA $0002
828285:	BD0000  	LDA $0000,x
828288:	291F00  	AND #$001F
82828B:	8D0400  	STA $0004
82828E:	BD0000  	LDA $0000,x
828291:	29E003  	AND #$03E0
828294:	8D0600  	STA $0006
828297:	BD0000  	LDA $0000,x
82829A:	29007C  	AND #$7C00
82829D:	8D0800  	STA $0008
8282A0:	B90000  	LDA $0000,Y
8282A3:	291F00  	AND #$001F
8282A6:	CD0400  	CMP $0004
8282A9:	F009    	BEQ $82B4
8282AB:	B003    	BCS $82B0
8282AD:	1A      	INC A
8282AE:	8001    	BRA $82B1
8282B0:	3A      	DEC A
8282B1:	9C0000  	STZ $0000
8282B4:	8D0A00  	STA $000A
8282B7:	B90000  	LDA $0000,Y
8282BA:	29E003  	AND #$03E0
8282BD:	CD0600  	CMP $0006
8282C0:	F00F    	BEQ $82D1
8282C2:	B006    	BCS $82CA
8282C4:	18      	CLC 
8282C5:	692000  	ADC #$0020
8282C8:	8004    	BRA $82CE
8282CA:	38      	SEC 
8282CB:	E92000  	SBC #$0020
8282CE:	9C0000  	STZ $0000
8282D1:	0C0A00  	TSB $000A
8282D4:	B90000  	LDA $0000,Y
8282D7:	29007C  	AND #$7C00
8282DA:	CD0800  	CMP $0008
8282DD:	F00F    	BEQ $82EE
8282DF:	B006    	BCS $82E7
8282E1:	18      	CLC 
8282E2:	690004  	ADC #$0400
8282E5:	8004    	BRA $82EB
8282E7:	38      	SEC 
8282E8:	E90004  	SBC #$0400
8282EB:	9C0000  	STZ $0000
8282EE:	0C0A00  	TSB $000A
8282F1:	AD0A00  	LDA $000A
8282F4:	990000  	STA $0000,Y
8282F7:	E8      	INX 
8282F8:	E8      	INX 
8282F9:	C8      	INY 
8282FA:	C8      	INY 
8282FB:	CE0200  	DEC $0002
8282FE:	F003    	BEQ $8303
828300:	4C8582  	JMP $8285
828303:	E220    	SEP #$20
828305:	4E0000  	LSR $0000
828308:	6B      	RTL

######INPUT ##########
82931D:	B220    	LDA ($20)
82931F:	F003    	BEQ $9324
829321:	4C7D93  	JMP $937D
829324:	B24C    	LDA ($4C)
829326:	F004    	BEQ $932C
829328:	B25C    	LDA ($5C)
82932A:	8011    	BRA $933D
82932C:	ADD606  	LDA $06D6
82932F:	D005    	BNE $9336
829331:	AD2300  	LDA $0023		//pad
829334:	8003    	BRA $9339
829336:	AD2F00  	LDA $002F
829339:	8904    	BIT #$04
82933B:	D03E    	BNE $937B
82933D:	2901    	AND #$01
82933F:	F03A    	BEQ $937B
829341:	B224    	LDA ($24)
829343:	F005    	BEQ $934A
829345:	BD2100  	LDA $0021,X
829348:	D031    	BNE $937B
82934A:	BD1900  	LDA $0019,X
82934D:	D02C    	BNE $937B
82934F:	BD1100  	LDA $0011,X
829352:	D027    	BNE $937B
829354:	A00800  	LDY #$0008
829357:	B20A    	LDA ($0A)
829359:	F008    	BEQ $9363
82935B:	BD0900  	LDA $0009,X
82935E:	D01B    	BNE $937B
829360:	A01000  	LDY #$0010
829363:	8C0000  	STY $0000
829366:	C220    	REP #$20
829368:	B208    	LDA ($08)
82936A:	38      	SEC 
82936B:	ED0000  	SBC $0000
82936E:	A8      	TAY 
82936F:	E220    	SEP #$20
829371:	A9FF    	LDA #$FF
829373:	9178    	STA ($78),Y
829375:	A904    	LDA #$04
829377:	9220    	STA ($20)
829379:	8002    	BRA $937D
82937B:	18      	CLC 
82937C:	60      	RTS

######Migi INPUT#####
82937D:	A05E04  	LDY #$045E
829380:	ADD606  	LDA $06D6
829383:	F003    	BEQ $9388
829385:	A06A04  	LDY #$046A
829388:	B20A    	LDA ($0A)
82938A:	F009    	BEQ $9395
82938C:	B90000  	LDA $0000,Y
82938F:	18      	CLC 
829390:	6904    	ADC #$04
829392:	990000  	STA $0000,Y
829395:	B90400  	LDA $0004,Y
829398:	18      	CLC 
829399:	6904    	ADC #$04
82939B:	990400  	STA $0004,Y
82939E:	B90800  	LDA $0008,Y
8293A1:	18      	CLC 
8293A2:	6904    	ADC #$04
8293A4:	990800  	STA $0008,Y
8293A7:	B220    	LDA ($20)
8293A9:	3A      	DEC A
8293AA:	9220    	STA ($20)
8293AC:	D00A    	BNE $93B8
8293AE:	B208    	LDA ($08)
8293B0:	1A      	INC A
8293B1:	9208    	STA ($08)
8293B3:	E8      	INX 
8293B4:	38      	SEC 
8293B5:	4C7C93  	JMP $937C
8293B8:	4C7B93  	JMP $937B

8293BB:	B222    	LDA ($22)
8293BD:	F003    	BEQ $93C2
8293BF:	4C1B94  	JMP $941B
8293C2:	B24C    	LDA ($4C)
8293C4:	F004    	BEQ $93CA
8293C6:	B25C    	LDA ($5C)
8293C8:	8011    	BRA $93DB
8293CA:	ADD606  	LDA $06D6
8293CD:	D005    	BNE $93D4
8293CF:	AD2300  	LDA $0023
8293D2:	8003    	BRA $93D7
8293D4:	AD2F00  	LDA $002F
8293D7:	8904    	BIT #$04
8293D9:	D03E    	BNE $9419
8293DB:	2902    	AND #$02
8293DD:	F03A    	BEQ $9419
8293DF:	B224    	LDA ($24)
8293E1:	F005    	BEQ $93E8
8293E3:	BD1F00  	LDA $001F,X
8293E6:	D031    	BNE $9419
8293E8:	BD1700  	LDA $0017,X
8293EB:	D02C    	BNE $9419
8293ED:	BD0F00  	LDA $000F,X
8293F0:	D027    	BNE $9419
8293F2:	A00800  	LDY #$0008
8293F5:	B20A    	LDA ($0A)
8293F7:	F008    	BEQ $9401
8293F9:	BD0700  	LDA $0007,X
8293FC:	D01B    	BNE $9419
8293FE:	A01000  	LDY #$0010
829401:	8C0000  	STY $0000
829404:	C220    	REP #$20
829406:	B208    	LDA ($08)
829408:	38      	SEC 
829409:	ED0000  	SBC $0000
82940C:	A8      	TAY 
82940D:	E220    	SEP #$20
82940F:	A9FF    	LDA #$FF
829411:	9178    	STA ($78),Y
829413:	A904    	LDA #$04
829415:	9222    	STA ($22)
829417:	8002    	BRA $941B
829419:	18      	CLC 
82941A:	60      	RTS

82941B:	A05E04  	LDY #$045E
82941E:	ADD606  	LDA $06D6
829421:	F003    	BEQ $9426
829423:	A06A04  	LDY #$046A
829426:	B20A    	LDA ($0A)
829428:	F009    	BEQ $9433
82942A:	B90000  	LDA $0000,Y
82942D:	38      	SEC 
82942E:	E904    	SBC #$04
829430:	990000  	STA $0000,Y
829433:	B90400  	LDA $0004,Y
829436:	38      	SEC 
829437:	E904    	SBC #$04
829439:	990400  	STA $0004,Y
82943C:	B90800  	LDA $0008,Y
82943F:	38      	SEC 
829440:	E904    	SBC #$04
829442:	990800  	STA $0008,Y
829445:	B222    	LDA ($22)
829447:	3A      	DEC A
829448:	9222    	STA ($22)
82944A:	D00A    	BNE $9456
82944C:	B208    	LDA ($08)
82944E:	3A      	DEC A
82944F:	9208    	STA ($08)
829451:	CA      	DEX 
829452:	38      	SEC 
829453:	4C1A94  	JMP $941A
829456:	4C1994  	JMP $9419
829459:	B224    	LDA ($24)
82945B:	F003    	BEQ $9460
82945D:	4CC694  	JMP $94C6
829460:	B24C    	LDA ($4C)
829462:	D033    	BNE $9497
829464:	B2B2    	LDA ($B2)
829466:	3A      	DEC A
829467:	3019    	BMI $9482
829469:	92B2    	STA ($B2)
82946B:	ADD606  	LDA $06D6
82946E:	D005    	BNE $9475
829470:	AD2500  	LDA $0025
829473:	8003    	BRA $9478
829475:	AD3100  	LDA $0031
829478:	2904    	AND #$04
82947A:	F01B    	BEQ $9497
82947C:	A900    	LDA #$00
82947E:	92B2    	STA ($B2)
829480:	8020    	BRA $94A2
829482:	A900    	LDA #$00
829484:	92B2    	STA ($B2)
829486:	ADD606  	LDA $06D6
829489:	D005    	BNE $9490
82948B:	AD2100  	LDA $0021
82948E:	8003    	BRA $9493
829490:	AD2D00  	LDA $002D
829493:	2904    	AND #$04
829495:	D00B    	BNE $94A2
829497:	B21A    	LDA ($1A)
829499:	3A      	DEC A
82949A:	3006    	BMI $94A2
82949C:	921A    	STA ($1A)
82949E:	A900    	LDA #$00
8294A0:	8023    	BRA $94C5
8294A2:	221E9582	JSR $82951E
8294A6:	BD2000  	LDA $0020,X
8294A9:	D018    	BNE $94C3
8294AB:	B220    	LDA ($20)
8294AD:	F005    	BEQ $94B4
8294AF:	BD2100  	LDA $0021,X
8294B2:	D00F    	BNE $94C3
8294B4:	B222    	LDA ($22)
8294B6:	F005    	BEQ $94BD
8294B8:	BD1F00  	LDA $001F,X
8294BB:	D006    	BNE $94C3
8294BD:	A902    	LDA #$02
8294BF:	9224    	STA ($24)
8294C1:	8003    	BRA $94C6
8294C3:	A901    	LDA #$01
8294C5:	60      	RTS

######POWER UP#########
82AD07:	C8      	INY 
82AD08:	B12C    	LDA ($2C),Y
82AD0A:	88      	DEY 
82AD0B:	C905    	CMP #$05
82AD0D:	903A    	BCC $AD49
82AD0F:	ADD906  	LDA $06D9
82AD12:	C901    	CMP #$01
82AD14:	F00B    	BEQ $AD21
82AD16:	B286    	LDA ($86)
82AD18:	1A      	INC A
82AD19:	C903    	CMP #$03
82AD1B:	9026    	BCC $AD43
82AD1D:	A903    	LDA #$03
82AD1F:	8022    	BRA $AD43
82AD21:	C220    	REP #$20
82AD23:	7B      	TDC 
82AD24:	C9FC8A  	CMP #$8AFC
82AD27:	E220    	SEP #$20
82AD29:	D00D    	BNE $AD38
82AD2B:	B286    	LDA ($86)
82AD2D:	1A      	INC A
82AD2E:	CD8B07  	CMP $078B
82AD31:	9010    	BCC $AD43
82AD33:	AD8B07  	LDA $078B
82AD36:	800B    	BRA $AD43
82AD38:	B286    	LDA ($86)
82AD3A:	1A      	INC A
82AD3B:	CD8C07  	CMP $078C
82AD3E:	9003    	BCC $AD43
82AD40:	AD8C07  	LDA $078C
82AD43:	9286    	STA ($86)
82AD45:	2273AC82	JSR $82AC73
82AD49:	6B      	RTL